

HI-TECH Software PIC LITE Macro Assembler V9.82 build 9453 
                                                                                               Mon Oct 10 13:09:30 2011

HI-TECH Software Omniscient Code Generator (Lite mode) build 9453
     1  0000                     opt subtitle "HI-TECH Software Omniscient Code Generator (Lite mode) build 9453"
     2                           
     3                           opt pagewidth 120
     4                           
     5                           	opt lm
     6                           
     7                           	processor	16F684
     8                           clrc	macro
     9                           	bcf	3,0
    10  0000                     	endm
    11                           clrz	macro
    12                           	bcf	3,2
    13  0000                     	endm
    14                           setc	macro
    15                           	bsf	3,0
    16  0000                     	endm
    17                           setz	macro
    18                           	bsf	3,2
    19  0000                     	endm
    20                           skipc	macro
    21                           	btfss	3,0
    22  0000                     	endm
    23                           skipz	macro
    24                           	btfss	3,2
    25  0000                     	endm
    26                           skipnc	macro
    27                           	btfsc	3,0
    28  0000                     	endm
    29                           skipnz	macro
    30                           	btfsc	3,2
    31  0000                     	endm
    32  0000                     indf	equ	0
    33  0000                     indf0	equ	0
    34  0002                     pc	equ	2
    35  0002                     pcl	equ	2
    36  0003                     status	equ	3
    37  0004                     fsr	equ	4
    38  0004                     fsr0	equ	4
    39  0001                     c	equ	1
    40  0000                     z	equ	0
    41  000A                     pclath	equ	10
    42                           # 18 "C:\Projects\Nordic\dual wireless mic ref design\clean source code\RX\main.c"
    43                           	psect config,class=CONFIG,delta=2 ;#
    44                           # 18 "C:\Projects\Nordic\dual wireless mic ref design\clean source code\RX\main.c"
    45  2007  30D4               	dw 0x30D4 ;#
    46                           	FNCALL	_main,_setup_ports
    47                           	FNCALL	_main,_delay_us
    48                           	FNCALL	_main,_delay_ms
    49                           	FNCALL	_main,_Nordic_Wakeup
    50                           	FNCALL	_main,_Nordic_Wakeup2
    51                           	FNCALL	_main,_Nordic_Read
    52                           	FNCALL	_main,_Nordic_Send
    53                           	FNCALL	_main,_EEpromWrite
    54                           	FNCALL	_main,_EEpromRead
    55                           	FNCALL	_main,_Nordic_Readback
    56                           	FNCALL	_Nordic_Wakeup2,_delay_us
    57                           	FNCALL	_Nordic_Wakeup2,_EEpromRead
    58                           	FNCALL	_Nordic_Wakeup2,_Nordic_Readback
    59                           	FNCALL	_Nordic_Wakeup2,_delay_ms
    60                           	FNCALL	_Nordic_Wakeup,_delay_us
    61                           	FNCALL	_Nordic_Wakeup,_EEpromRead
    62                           	FNCALL	_Nordic_Wakeup,_Nordic_Readback
    63                           	FNCALL	_Nordic_Wakeup,_delay_ms
    64                           	FNCALL	_Nordic_Readback,_Nordic_Send
    65                           	FNCALL	_Nordic_Readback,_Nordic_Read
    66                           	FNCALL	_Nordic_Read,_delay_us
    67                           	FNCALL	_Nordic_Read,_ClockEight
    68                           	FNCALL	_Nordic_Send,_delay_us
    69                           	FNCALL	_Nordic_Send,_ClockEight
    70                           	FNCALL	_ClockEight,_delay_us
    71                           	FNROOT	_main
    72                           	global	_N_ADDR
    73                           	global	_NordicReg1RED
    74                           	global	_NordicReg1REDA
    75                           	global	_NordicReg2BLUE
    76                           	global	_NordicReg2BLUEA
    77                           psect	idataBANK0,class=CODE,space=0,delta=2
    78                           global __pidataBANK0
    79  0174                     __pidataBANK0:
    80                           	file	"C:\Projects\Nordic\dual wireless mic ref design\clean source code\RX\nordicmanage
                                 r.c"
    81                           	line	21
    82                           
    83                           ;initializer for _N_ADDR
    84  0174  34D2               	retlw	0D2h
    85                           psect	idataEEDATA,class=EEDATA,space=2,delta=2
    86                           global __pidataEEDATA
    87  0000                     __pidataEEDATA:
    88                           	file	"C:\Projects\Nordic\dual wireless mic ref design\clean source code\RX\main.c"
    89                           	line	32
    90                           
    91                           ;initializer for _NordicReg1RED
    92  0000                     _NordicReg1RED:
    93  0000  0000               	db	0
    94  0001  0051               	db	051h
    95  0002  0000               	db	0
    96  0003  0000               	db	0
    97  0004  0000               	db	0
    98  0005  0000               	db	0
    99  0006  0000               	db	0
   100  0007  0000               	db	0
   101  0008  0000               	db	0
   102  0009  0000               	db	0
   103  000A  0000               	db	0
   104  000B  0000               	db	0
   105  000C  0034               	db	034h
   106  000D  000A               	db	0Ah
   107  000E  0042               	db	042h
   108  000F  004F               	db	04Fh
   109  0010  0018               	db	018h
   110  0011  0026               	db	026h
   111  0012  0000               	db	0
   112  0013  0000               	db	0
   113  0014  0000               	db	0
   114  0015  0000               	db	0
   115  0016  0000               	db	0
   116  0017  0000               	db	0
   117  0018  0000               	db	0
   118  0019  0000               	db	0
   119  001A  0000               	db	0
   120  001B  0000               	db	0
   121  001C  0000               	db	0
   122  001D  0000               	db	0
   123  001E  0000               	db	0
   124  001F  0000               	db	0
   125  0020  0000               	db	0
   126  0021  0000               	db	0
   127  0022  0000               	db	0
   128  0023  0000               	db	0
   129  0024  0000               	db	0
   130  0025  0000               	db	0
   131  0026  0000               	db	0
   132  0027  0000               	db	0
   133  0028  0000               	db	0
   134  0029  0000               	db	0
   135  002A  0000               	db	0
   136  002B  0000               	db	0
   137  002C  0000               	db	0
   138  002D  0000               	db	0
   139  002E  0000               	db	0
   140  002F  0000               	db	0
   141  0030  0000               	db	0
   142  0031  0000               	db	0
   143  0032  0000               	db	0
   144  0033  0002               	db	02h
   145  0034  0006               	db	06h
   146  0035  0003               	db	03h
   147  0036  0000               	db	0
   148  0037  0000               	db	0
   149  0038  0000               	db	0
   150  0039  003B               	db	03Bh
   151  003A  00F6               	db	0F6h
   152  003B  00F3               	db	0F3h
   153  003C  0053               	db	053h
   154  003D  0017               	db	017h
   155  003E  0000               	db	0
   156  003F  0000               	db	0
   157                           	line	100
   158                           
   159                           ;initializer for _NordicReg1REDA
   160  0040                     _NordicReg1REDA:
   161  0040  0000               	db	0
   162  0041  0000               	db	0
   163  0042  0000               	db	0
   164  0043  0000               	db	0
   165  0044  0000               	db	0
   166  0045  0000               	db	0
   167  0046  0000               	db	0
   168  0047  0000               	db	0
   169  0048  0000               	db	0
   170  0049  0003               	db	03h
   171  004A  0000               	db	0
   172  004B  0000               	db	0
   173  004C  0000               	db	0
   174  004D  0000               	db	0
   175  004E  0000               	db	0
   176  004F  0000               	db	0
   177  0050  0000               	db	0
   178  0051  0000               	db	0
   179  0052  0006               	db	06h
   180  0053  0000               	db	0
   181  0054  0000               	db	0
   182  0055  0000               	db	0
   183  0056  0003               	db	03h
   184  0057  0000               	db	0
   185  0058  0000               	db	0
   186  0059  0000               	db	0
   187  005A  0000               	db	0
   188  005B  0000               	db	0
   189  005C  0000               	db	0
   190  005D  0000               	db	0
   191  005E  0000               	db	0
   192  005F  0000               	db	0
   193  0060  0000               	db	0
   194  0061  0000               	db	0
   195  0062  0000               	db	0
   196  0063  0000               	db	0
   197  0064  0000               	db	0
   198  0065  0000               	db	0
   199  0066  0000               	db	0
   200  0067  0000               	db	0
   201  0068  0000               	db	0
   202  0069  0000               	db	0
   203  006A  0000               	db	0
   204  006B  0000               	db	0
   205  006C  0000               	db	0
   206  006D  0000               	db	0
   207  006E  0000               	db	0
   208  006F  0000               	db	0
   209  0070  0000               	db	0
   210  0071  0000               	db	0
   211  0072  0000               	db	0
   212  0073  0000               	db	0
   213  0074  0000               	db	0
   214  0075  0000               	db	0
   215  0076  0000               	db	0
   216  0077  0000               	db	0
   217  0078  0000               	db	0
   218  0079  0000               	db	0
   219  007A  0000               	db	0
   220  007B  0000               	db	0
   221  007C  0000               	db	0
   222  007D  0000               	db	0
   223  007E  0000               	db	0
   224  007F  0000               	db	0
   225                           	line	170
   226                           
   227                           ;initializer for _NordicReg2BLUE
   228  0080                     _NordicReg2BLUE:
   229  0080  0000               	db	0
   230  0081  0051               	db	051h
   231  0082  0000               	db	0
   232  0083  0000               	db	0
   233  0084  0000               	db	0
   234  0085  0000               	db	0
   235  0086  0000               	db	0
   236  0087  0000               	db	0
   237  0088  0000               	db	0
   238  0089  0000               	db	0
   239  008A  0000               	db	0
   240  008B  0000               	db	0
   241  008C  001F               	db	01Fh
   242  008D  003B               	db	03Bh
   243  008E  0011               	db	011h
   244  008F  0004               	db	04h
   245  0090  002D               	db	02Dh
   246  0091  0049               	db	049h
   247  0092  0000               	db	0
   248  0093  0000               	db	0
   249  0094  0000               	db	0
   250  0095  0000               	db	0
   251  0096  0000               	db	0
   252  0097  0000               	db	0
   253  0098  0000               	db	0
   254  0099  0000               	db	0
   255  009A  0000               	db	0
   256  009B  0000               	db	0
   257  009C  0000               	db	0
   258  009D  0000               	db	0
   259  009E  0000               	db	0
   260  009F  0000               	db	0
   261  00A0  0000               	db	0
   262  00A1  0000               	db	0
   263  00A2  0000               	db	0
   264  00A3  0000               	db	0
   265  00A4  0000               	db	0
   266  00A5  0000               	db	0
   267  00A6  0000               	db	0
   268  00A7  0000               	db	0
   269  00A8  0000               	db	0
   270  00A9  0000               	db	0
   271  00AA  0000               	db	0
   272  00AB  0000               	db	0
   273  00AC  0000               	db	0
   274  00AD  0000               	db	0
   275  00AE  0000               	db	0
   276  00AF  0000               	db	0
   277  00B0  0000               	db	0
   278  00B1  0000               	db	0
   279  00B2  0000               	db	0
   280  00B3  0002               	db	02h
   281  00B4  0006               	db	06h
   282  00B5  0003               	db	03h
   283  00B6  0000               	db	0
   284  00B7  0000               	db	0
   285  00B8  0000               	db	0
   286  00B9  00AB               	db	0ABh
   287  00BA  0031               	db	031h
   288  00BB  003E               	db	03Eh
   289  00BC  003F               	db	03Fh
   290  00BD  003A               	db	03Ah
   291  00BE  0000               	db	0
   292  00BF  0000               	db	0
   293                           	line	238
   294                           
   295                           ;initializer for _NordicReg2BLUEA
   296  00C0                     _NordicReg2BLUEA:
   297  00C0  0000               	db	0
   298  00C1  0000               	db	0
   299  00C2  0000               	db	0
   300  00C3  0000               	db	0
   301  00C4  0000               	db	0
   302  00C5  0000               	db	0
   303  00C6  0000               	db	0
   304  00C7  0000               	db	0
   305  00C8  0000               	db	0
   306  00C9  0003               	db	03h
   307  00CA  0000               	db	0
   308  00CB  0000               	db	0
   309  00CC  0000               	db	0
   310  00CD  0000               	db	0
   311  00CE  0000               	db	0
   312  00CF  0000               	db	0
   313  00D0  0000               	db	0
   314  00D1  0000               	db	0
   315  00D2  0006               	db	06h
   316  00D3  0000               	db	0
   317  00D4  0000               	db	0
   318  00D5  0000               	db	0
   319  00D6  0003               	db	03h
   320  00D7  0000               	db	0
   321  00D8  0000               	db	0
   322  00D9  0000               	db	0
   323  00DA  0000               	db	0
   324  00DB  0000               	db	0
   325  00DC  0000               	db	0
   326  00DD  0000               	db	0
   327  00DE  0000               	db	0
   328  00DF  0000               	db	0
   329  00E0  0000               	db	0
   330  00E1  0000               	db	0
   331  00E2  0000               	db	0
   332  00E3  0000               	db	0
   333  00E4  0000               	db	0
   334  00E5  0000               	db	0
   335  00E6  0000               	db	0
   336  00E7  0000               	db	0
   337  00E8  0000               	db	0
   338  00E9  0000               	db	0
   339  00EA  0000               	db	0
   340  00EB  0000               	db	0
   341  00EC  0000               	db	0
   342  00ED  0000               	db	0
   343  00EE  0000               	db	0
   344  00EF  0000               	db	0
   345  00F0  0000               	db	0
   346  00F1  0000               	db	0
   347  00F2  0000               	db	0
   348  00F3  0000               	db	0
   349  00F4  0000               	db	0
   350  00F5  0000               	db	0
   351  00F6  0000               	db	0
   352  00F7  0000               	db	0
   353  00F8  0000               	db	0
   354  00F9  0000               	db	0
   355  00FA  0000               	db	0
   356  00FB  0000               	db	0
   357  00FC  0000               	db	0
   358  00FD  0000               	db	0
   359  00FE  0000               	db	0
   360  00FF  0000               	db	0
   361                           	global	_pointer
   362                           	global	_blue_address_changed
   363                           	global	_data
   364                           	global	_i
   365                           	global	_red_address_changed
   366                           	global	_timeout
   367                           	global	_TransmissionError
   368                           	global	_address
   369                           	global	_data8
   370                           	global	_CMCON0
   371  0019                     _CMCON0	set	25
   372                           	global	_CMCON1
   373  001A                     _CMCON1	set	26
   374                           	global	_PORTA
   375  0005                     _PORTA	set	5
   376                           	global	_PORTC
   377  0007                     _PORTC	set	7
   378                           	global	_ADON
   379  00F8                     _ADON	set	248
   380                           	global	_CARRY
   381  0018                     _CARRY	set	24
   382                           	global	_GIE
   383  005F                     _GIE	set	95
   384                           	global	_RA2
   385  002A                     _RA2	set	42
   386                           	global	_RA4
   387  002C                     _RA4	set	44
   388                           	global	_RA5
   389  002D                     _RA5	set	45
   390                           	global	_RC0
   391  0038                     _RC0	set	56
   392                           	global	_RC2
   393  003A                     _RC2	set	58
   394                           	global	_RC3
   395  003B                     _RC3	set	59
   396                           	global	_RC4
   397  003C                     _RC4	set	60
   398                           	global	_RC5
   399  003D                     _RC5	set	61
   400                           	global	_ANSEL
   401  0091                     _ANSEL	set	145
   402                           	global	_EEADR
   403  009B                     _EEADR	set	155
   404                           	global	_EECON1
   405  009C                     _EECON1	set	156
   406                           	global	_EECON2
   407  009D                     _EECON2	set	157
   408                           	global	_EEDAT
   409  009A                     _EEDAT	set	154
   410                           	global	_EEDATA
   411  009A                     _EEDATA	set	154
   412                           	global	_OSCCON
   413  008F                     _OSCCON	set	143
   414                           	global	_TRISA
   415  0085                     _TRISA	set	133
   416                           	global	_TRISC
   417  0087                     _TRISC	set	135
   418                           	global	_RD
   419  04E0                     _RD	set	1248
   420                           	global	_WR
   421  04E1                     _WR	set	1249
   422                           	global	_WREN
   423  04E2                     _WREN	set	1250
   424                           	file	"C:\Users\JOHN~1.SJA\AppData\Local\Temp\s1ac."
   425                           	line	#
   426                           psect cinit,class=CODE,delta=2
   427                           global start_initialization
   428  0185                     start_initialization:
   429                           
   430                           	file	"C:\Projects\Nordic\dual wireless mic ref design\clean source code\RX\main.c"
   431                           	line	32
   432                           	file	"C:\Projects\Nordic\dual wireless mic ref design\clean source code\RX\main.c"
   433                           	line	100
   434                           	file	"C:\Projects\Nordic\dual wireless mic ref design\clean source code\RX\main.c"
   435                           	line	170
   436                           	file	"C:\Projects\Nordic\dual wireless mic ref design\clean source code\RX\main.c"
   437                           	line	238
   438                           psect	bssBANK0,class=BANK0,space=1
   439                           global __pbssBANK0
   440  0020                     __pbssBANK0:
   441  0020                     _pointer:
   442  0020                            ds      4
   443                           
   444  0024                     _blue_address_changed:
   445  0024                            ds      2
   446                           
   447  0026                     _data:
   448  0026                            ds      2
   449                           
   450  0028                     _i:
   451  0028                            ds      2
   452                           
   453  002A                     _red_address_changed:
   454  002A                            ds      2
   455                           
   456  002C                     _timeout:
   457  002C                            ds      2
   458                           
   459  002E                     _TransmissionError:
   460  002E                            ds      1
   461                           
   462  002F                     _address:
   463  002F                            ds      1
   464                           
   465  0030                     _data8:
   466  0030                            ds      1
   467                           
   468                           psect	dataBANK0,class=BANK0,space=1
   469                           global __pdataBANK0
   470  003B                     __pdataBANK0:
   471                           	file	"C:\Projects\Nordic\dual wireless mic ref design\clean source code\RX\nordicmanage
                                 r.c"
   472                           	line	21
   473  003B                     _N_ADDR:
   474  003B                            ds      1
   475                           
   476                           psect clrtext,class=CODE,delta=2
   477                           global clear_ram
   478                           ;	Called with FSR containing the base address, and
   479                           ;	W with the last address+1
   480  017D                     clear_ram:
   481  017D  0064               	clrwdt			;clear the watchdog before getting into this loop
   482  017E                     clrloop:
   483  017E  0180               	clrf	indf		;clear RAM location pointed to by FSR
   484  017F  0A84               	incf	fsr,f		;increment pointer
   485  0180  0604               	xorwf	fsr,w		;XOR with final address
   486  0181  1903               	btfsc	status,2	;have we reached the end yet?
   487  0182  3400               	retlw	0		;all done for this memory range, return
   488  0183  0604               	xorwf	fsr,w		;XOR again to restore value
   489  0184  297E               	goto	clrloop		;do the next byte
   490                           
   491                           ; Clear objects allocated to BANK0
   492                           psect cinit,class=CODE,delta=2
   493  0185  1383               	bcf	status, 7	;select IRP bank0
   494  0186  3020               	movlw	low(__pbssBANK0)
   495  0187  0084               	movwf	fsr
   496  0188  3031               	movlw	low((__pbssBANK0)+011h)
   497  0189  217D               	fcall	clear_ram
   498                           global btemp
   499                           psect inittext,class=CODE,delta=2
   500                           global init_fetch,btemp
   501                           ;	Called with low address in FSR and high address in W
   502  019A                     init_fetch:
   503  019A  087E               	movf btemp,w
   504  019B  008A               	movwf pclath
   505  019C  087F               	movf btemp+1,w
   506  019D  0082               	movwf pc
   507                           global init_ram
   508                           ;Called with:
   509                           ;	high address of idata address in btemp 
   510                           ;	low address of idata address in btemp+1 
   511                           ;	low address of data in FSR
   512                           ;	high address + 1 of data in btemp-1
   513  019E                     init_ram:
   514  019E  219A               	fcall init_fetch
   515  019F  0080               	movwf indf,f
   516  01A0  0A84               	incf fsr,f
   517  01A1  0804               	movf fsr,w
   518  01A2  067D               	xorwf btemp-1,w
   519  01A3  1903               	btfsc status,2
   520  01A4  3400               	retlw 0
   521  01A5  0AFF               	incf btemp+1,f
   522  01A6  1903               	btfsc status,2
   523  01A7  0AFE               	incf btemp,f
   524  01A8  299E               	goto init_ram
   525                           ; Initialize objects allocated to BANK0
   526                           	global __pidataBANK0
   527                           psect cinit,class=CODE,delta=2
   528  018A  2174               	fcall	__pidataBANK0+0		;fetch initializer
   529  018B  00BB               	movwf	__pdataBANK0+0&07fh		
   530                           psect cinit,class=CODE,delta=2
   531                           global end_of_initialization
   532                           
   533                           ;End of C runtime variable initialization code
   534                           
   535  018C                     end_of_initialization:
   536  018C  0183               clrf status
   537  018D  2D67               ljmp _main	;jump to C main() function
   538                           psect	cstackCOMMON,class=COMMON,space=1
   539                           global __pcstackCOMMON
   540  0070                     __pcstackCOMMON:
   541                           	global	?_delay_us
   542  0070                     ?_delay_us:	; 0 bytes @ 0x0
   543                           	global	??_delay_us
   544  0070                     ??_delay_us:	; 0 bytes @ 0x0
   545                           	global	??_EEpromRead
   546  0070                     ??_EEpromRead:	; 0 bytes @ 0x0
   547                           	global	?_delay_ms
   548  0070                     ?_delay_ms:	; 0 bytes @ 0x0
   549                           	global	??_delay_ms
   550  0070                     ??_delay_ms:	; 0 bytes @ 0x0
   551                           	global	?_setup_ports
   552  0070                     ?_setup_ports:	; 0 bytes @ 0x0
   553                           	global	??_setup_ports
   554  0070                     ??_setup_ports:	; 0 bytes @ 0x0
   555                           	global	?_ClockEight
   556  0070                     ?_ClockEight:	; 0 bytes @ 0x0
   557                           	global	?_Nordic_Wakeup
   558  0070                     ?_Nordic_Wakeup:	; 0 bytes @ 0x0
   559                           	global	?_Nordic_Wakeup2
   560  0070                     ?_Nordic_Wakeup2:	; 0 bytes @ 0x0
   561                           	global	?_main
   562  0070                     ?_main:	; 0 bytes @ 0x0
   563                           	global	?_EEpromRead
   564  0070                     ?_EEpromRead:	; 1 bytes @ 0x0
   565                           	global	?_Nordic_Read
   566  0070                     ?_Nordic_Read:	; 1 bytes @ 0x0
   567                           	global	delay_us@time
   568  0070                     delay_us@time:	; 1 bytes @ 0x0
   569                           	global	EEpromRead@address
   570  0070                     EEpromRead@address:	; 1 bytes @ 0x0
   571  0070                     	ds	1
   572                           	global	?_EEpromWrite
   573  0071                     ?_EEpromWrite:	; 0 bytes @ 0x1
   574                           	global	delay_ms@time
   575  0071                     delay_ms@time:	; 1 bytes @ 0x1
   576                           	global	EEpromWrite@value
   577  0071                     EEpromWrite@value:	; 1 bytes @ 0x1
   578  0071                     	ds	1
   579                           	global	??_EEpromWrite
   580  0072                     ??_EEpromWrite:	; 0 bytes @ 0x2
   581                           	global	delay_ms@temp
   582  0072                     delay_ms@temp:	; 1 bytes @ 0x2
   583                           	global	EEpromWrite@address
   584  0072                     EEpromWrite@address:	; 1 bytes @ 0x2
   585  0072                     	ds	1
   586                           	global	??_ClockEight
   587  0073                     ??_ClockEight:	; 0 bytes @ 0x3
   588                           	global	delay_ms@temp2
   589  0073                     delay_ms@temp2:	; 1 bytes @ 0x3
   590  0073                     	ds	2
   591                           	global	ClockEight@temp
   592  0075                     ClockEight@temp:	; 1 bytes @ 0x5
   593  0075                     	ds	1
   594                           	global	ClockEight@t
   595  0076                     ClockEight@t:	; 1 bytes @ 0x6
   596  0076                     	ds	1
   597                           	global	?_Nordic_Send
   598  0077                     ?_Nordic_Send:	; 0 bytes @ 0x7
   599                           	global	??_Nordic_Read
   600  0077                     ??_Nordic_Read:	; 0 bytes @ 0x7
   601                           	global	Nordic_Send@data8
   602  0077                     Nordic_Send@data8:	; 1 bytes @ 0x7
   603  0077                     	ds	1
   604                           	global	??_Nordic_Send
   605  0078                     ??_Nordic_Send:	; 0 bytes @ 0x8
   606  0078                     	ds	1
   607                           	global	Nordic_Send@address
   608  0079                     Nordic_Send@address:	; 1 bytes @ 0x9
   609                           	global	Nordic_Read@raddress
   610  0079                     Nordic_Read@raddress:	; 1 bytes @ 0x9
   611  0079                     	ds	1
   612                           	global	Nordic_Send@temp
   613  007A                     Nordic_Send@temp:	; 1 bytes @ 0xA
   614                           	global	Nordic_Read@t
   615  007A                     Nordic_Read@t:	; 1 bytes @ 0xA
   616  007A                     	ds	1
   617                           	global	Nordic_Read@temp
   618  007B                     Nordic_Read@temp:	; 1 bytes @ 0xB
   619  007B                     	ds	1
   620                           	global	?_Nordic_Readback
   621  007C                     ?_Nordic_Readback:	; 1 bytes @ 0xC
   622                           	global	Nordic_Readback@data8
   623  007C                     Nordic_Readback@data8:	; 1 bytes @ 0xC
   624  007C                     	ds	1
   625                           	global	??_Nordic_Readback
   626  007D                     ??_Nordic_Readback:	; 0 bytes @ 0xD
   627  007D                     	ds	1
   628                           psect	cstackBANK0,class=BANK0,space=1
   629                           global __pcstackBANK0
   630  0031                     __pcstackBANK0:
   631                           	global	Nordic_Readback@raddress
   632  0031                     Nordic_Readback@raddress:	; 1 bytes @ 0x0
   633  0031                     	ds	1
   634                           	global	Nordic_Readback@rdata
   635  0032                     Nordic_Readback@rdata:	; 1 bytes @ 0x1
   636  0032                     	ds	1
   637                           	global	Nordic_Readback@temp
   638  0033                     Nordic_Readback@temp:	; 1 bytes @ 0x2
   639  0033                     	ds	1
   640                           	global	Nordic_Readback@address
   641  0034                     Nordic_Readback@address:	; 1 bytes @ 0x3
   642  0034                     	ds	1
   643                           	global	??_Nordic_Wakeup
   644  0035                     ??_Nordic_Wakeup:	; 0 bytes @ 0x4
   645                           	global	??_Nordic_Wakeup2
   646  0035                     ??_Nordic_Wakeup2:	; 0 bytes @ 0x4
   647  0035                     	ds	4
   648                           	global	??_main
   649  0039                     ??_main:	; 0 bytes @ 0x8
   650  0039                     	ds	2
   651 ;;Data sizes: Strings 0, constant 0, data 257, bss 17, persistent 0 stack 0
   652 ;;Auto spaces:   Size  Autos    Used
   653 ;; COMMON          14     14      14
   654 ;; BANK0           80     10      28
   655 ;; BANK1           32      0       0
   656                           
   657 ;;
   658 ;; Pointer list with targets:
   659                           
   660                           
   661                           
   662 ;;
   663 ;; Critical Paths under _main in COMMON
   664 ;;
   665 ;;   _main->_Nordic_Readback
   666 ;;   _Nordic_Wakeup2->_Nordic_Readback
   667 ;;   _Nordic_Wakeup->_Nordic_Readback
   668 ;;   _Nordic_Readback->_Nordic_Read
   669 ;;   _Nordic_Read->_ClockEight
   670 ;;   _Nordic_Send->_ClockEight
   671 ;;   _ClockEight->_EEpromWrite
   672 ;;   _EEpromWrite->_delay_us
   673 ;;
   674 ;; Critical Paths under _main in BANK0
   675 ;;
   676 ;;   _main->_Nordic_Wakeup
   677 ;;   _main->_Nordic_Wakeup2
   678 ;;   _Nordic_Wakeup2->_Nordic_Readback
   679 ;;   _Nordic_Wakeup->_Nordic_Readback
   680 ;;
   681 ;; Critical Paths under _main in BANK1
   682 ;;
   683 ;;   None.
   684                           
   685 ;;
   686 ;;Main: autosize = 0, tempsize = 2, incstack = 0, save=0
   687 ;;
   688                           
   689 ;;
   690 ;;Call Graph Tables:
   691 ;;
   692 ;; ---------------------------------------------------------------------------------
   693 ;; (Depth) Function   	        Calls       Base Space   Used Autos Params    Refs
   694 ;; ---------------------------------------------------------------------------------
   695 ;; (0) _main                                                 2     2      0    3126
   696 ;;                                              8 BANK0      2     2      0
   697 ;;                        _setup_ports
   698 ;;                           _delay_us
   699 ;;                           _delay_ms
   700 ;;                      _Nordic_Wakeup
   701 ;;                     _Nordic_Wakeup2
   702 ;;                        _Nordic_Read
   703 ;;                        _Nordic_Send
   704 ;;                        _EEpromWrite
   705 ;;                         _EEpromRead
   706 ;;                    _Nordic_Readback
   707 ;; ---------------------------------------------------------------------------------
   708 ;; (1) _Nordic_Wakeup2                                       4     4      0     845
   709 ;;                                              4 BANK0      4     4      0
   710 ;;                           _delay_us
   711 ;;                         _EEpromRead
   712 ;;                    _Nordic_Readback
   713 ;;                           _delay_ms
   714 ;; ---------------------------------------------------------------------------------
   715 ;; (1) _Nordic_Wakeup                                        4     4      0     845
   716 ;;                                              4 BANK0      4     4      0
   717 ;;                           _delay_us
   718 ;;                         _EEpromRead
   719 ;;                    _Nordic_Readback
   720 ;;                           _delay_ms
   721 ;; ---------------------------------------------------------------------------------
   722 ;; (1) _Nordic_Readback                                      6     5      1     727
   723 ;;                                             12 COMMON     2     1      1
   724 ;;                                              0 BANK0      4     4      0
   725 ;;                        _Nordic_Send
   726 ;;                        _Nordic_Read
   727 ;; ---------------------------------------------------------------------------------
   728 ;; (2) _Nordic_Read                                          5     5      0     343
   729 ;;                                              7 COMMON     5     5      0
   730 ;;                           _delay_us
   731 ;;                         _ClockEight
   732 ;;                        _EEpromWrite (ARG)
   733 ;; ---------------------------------------------------------------------------------
   734 ;; (2) _Nordic_Send                                          4     3      1     204
   735 ;;                                              7 COMMON     4     3      1
   736 ;;                           _delay_us
   737 ;;                         _ClockEight
   738 ;; ---------------------------------------------------------------------------------
   739 ;; (3) _ClockEight                                           4     4      0     114
   740 ;;                                              3 COMMON     4     4      0
   741 ;;                           _delay_us
   742 ;;                        _EEpromWrite (ARG)
   743 ;; ---------------------------------------------------------------------------------
   744 ;; (1) _EEpromWrite                                          2     1      1      44
   745 ;;                                              1 COMMON     2     1      1
   746 ;;                           _delay_us (ARG)
   747 ;; ---------------------------------------------------------------------------------
   748 ;; (1) _setup_ports                                          0     0      0       0
   749 ;; ---------------------------------------------------------------------------------
   750 ;; (2) _delay_ms                                             4     4      0      73
   751 ;;                                              0 COMMON     4     4      0
   752 ;; ---------------------------------------------------------------------------------
   753 ;; (1) _EEpromRead                                           1     1      0      22
   754 ;;                                              0 COMMON     1     1      0
   755 ;; ---------------------------------------------------------------------------------
   756 ;; (4) _delay_us                                             1     1      0      23
   757 ;;                                              0 COMMON     1     1      0
   758 ;; ---------------------------------------------------------------------------------
   759 ;; Estimated maximum stack depth 4
   760 ;; ---------------------------------------------------------------------------------
   761                           
   762 ;; Call Graph Graphs:
   763                           
   764 ;; _main (ROOT)
   765 ;;   _setup_ports
   766 ;;   _delay_us
   767 ;;   _delay_ms
   768 ;;   _Nordic_Wakeup
   769 ;;     _delay_us
   770 ;;     _EEpromRead
   771 ;;     _Nordic_Readback
   772 ;;       _Nordic_Send
   773 ;;         _delay_us
   774 ;;         _ClockEight
   775 ;;           _delay_us
   776 ;;           _EEpromWrite (ARG)
   777 ;;             _delay_us (ARG)
   778 ;;       _Nordic_Read
   779 ;;         _delay_us
   780 ;;         _ClockEight
   781 ;;           _delay_us
   782 ;;           _EEpromWrite (ARG)
   783 ;;             _delay_us (ARG)
   784 ;;         _EEpromWrite (ARG)
   785 ;;           _delay_us (ARG)
   786 ;;     _delay_ms
   787 ;;   _Nordic_Wakeup2
   788 ;;     _delay_us
   789 ;;     _EEpromRead
   790 ;;     _Nordic_Readback
   791 ;;       _Nordic_Send
   792 ;;         _delay_us
   793 ;;         _ClockEight
   794 ;;           _delay_us
   795 ;;           _EEpromWrite (ARG)
   796 ;;             _delay_us (ARG)
   797 ;;       _Nordic_Read
   798 ;;         _delay_us
   799 ;;         _ClockEight
   800 ;;           _delay_us
   801 ;;           _EEpromWrite (ARG)
   802 ;;             _delay_us (ARG)
   803 ;;         _EEpromWrite (ARG)
   804 ;;           _delay_us (ARG)
   805 ;;     _delay_ms
   806 ;;   _Nordic_Read
   807 ;;     _delay_us
   808 ;;     _ClockEight
   809 ;;       _delay_us
   810 ;;       _EEpromWrite (ARG)
   811 ;;         _delay_us (ARG)
   812 ;;     _EEpromWrite (ARG)
   813 ;;       _delay_us (ARG)
   814 ;;   _Nordic_Send
   815 ;;     _delay_us
   816 ;;     _ClockEight
   817 ;;       _delay_us
   818 ;;       _EEpromWrite (ARG)
   819 ;;         _delay_us (ARG)
   820 ;;   _EEpromWrite
   821 ;;     _delay_us (ARG)
   822 ;;   _EEpromRead
   823 ;;   _Nordic_Readback
   824 ;;     _Nordic_Send
   825 ;;       _delay_us
   826 ;;       _ClockEight
   827 ;;         _delay_us
   828 ;;         _EEpromWrite (ARG)
   829 ;;           _delay_us (ARG)
   830 ;;     _Nordic_Read
   831 ;;       _delay_us
   832 ;;       _ClockEight
   833 ;;         _delay_us
   834 ;;         _EEpromWrite (ARG)
   835 ;;           _delay_us (ARG)
   836 ;;       _EEpromWrite (ARG)
   837 ;;         _delay_us (ARG)
   838 ;;
   839                           
   840 ;; Address spaces:
   841                           
   842 ;;Name               Size   Autos  Total    Cost      Usage
   843 ;;SFR1                 0      0       0       2        0.0%
   844 ;;BITSFR1              0      0       0       2        0.0%
   845 ;;BANK1               20      0       0       5        0.0%
   846 ;;BITBANK1            20      0       0       7        0.0%
   847 ;;CODE                 0      0       0       0        0.0%
   848 ;;DATA                 0      0      2F       8        0.0%
   849 ;;ABS                  0      0      2A       6        0.0%
   850 ;;NULL                 0      0       0       0        0.0%
   851 ;;STACK                0      0       5       2        0.0%
   852 ;;BANK0               50      A      1C       4       35.0%
   853 ;;BITBANK0            50      0       0       3        0.0%
   854 ;;SFR0                 0      0       0       1        0.0%
   855 ;;BITSFR0              0      0       0       1        0.0%
   856 ;;COMMON               E      E       E       1      100.0%
   857 ;;BITCOMMON            E      0       0       0        0.0%
   858 ;;EEDATA             100      0     100       0      100.0%
   859                           
   860                           	global	_main
   861                           psect	maintext,global,class=CODE,delta=2
   862                           global __pmaintext
   863  0567                     __pmaintext:
   864                           
   865 ;; *************** function _main *****************
   866 ;; Defined at:
   867 ;;		line 314 in file "C:\Projects\Nordic\dual wireless mic ref design\clean source code\RX\main.c"
   868 ;; Parameters:    Size  Location     Type
   869 ;;		None
   870 ;; Auto vars:     Size  Location     Type
   871 ;;		None
   872 ;; Return value:  Size  Location     Type
   873 ;;		None               void
   874 ;; Registers used:
   875 ;;		wreg, status,2, status,0, btemp+1, pclath, cstack
   876 ;; Tracked objects:
   877 ;;		On entry : 17F/0
   878 ;;		On exit  : 0/0
   879 ;;		Unchanged: 0/0
   880 ;; Data sizes:     COMMON   BANK0   BANK1
   881 ;;      Params:         0       0       0
   882 ;;      Locals:         0       0       0
   883 ;;      Temps:          0       2       0
   884 ;;      Totals:         0       2       0
   885 ;;Total ram usage:        2 bytes
   886 ;; Hardware stack levels required when called:    5
   887 ;; This function calls:
   888 ;;		_setup_ports
   889 ;;		_delay_us
   890 ;;		_delay_ms
   891 ;;		_Nordic_Wakeup
   892 ;;		_Nordic_Wakeup2
   893 ;;		_Nordic_Read
   894 ;;		_Nordic_Send
   895 ;;		_EEpromWrite
   896 ;;		_EEpromRead
   897 ;;		_Nordic_Readback
   898 ;; This function is called by:
   899 ;;		Startup code after reset
   900 ;; This function uses a non-reentrant model
   901 ;;
   902                           psect	maintext
   903                           	file	"C:\Projects\Nordic\dual wireless mic ref design\clean source code\RX\main.c"
   904                           	line	314
   905                           	global	__size_of_main
   906  0299                     	__size_of_main	equ	__end_of_main-_main
   907                           	
   908  0567                     _main:	
   909                           	opt	stack 3
   910                           ; Regs used in _main: [wreg+status,2+status,0+btemp+1+pclath+cstack]
   911                           	line	316
   912                           	
   913  0567                     l4581:	
   914                           ;main.c: 316: setup_ports();
   915  0567  21B9               	fcall	_setup_ports
   916                           	line	317
   917                           	
   918  0568                     l4583:	
   919                           ;main.c: 317: RC4=0;
   920  0568  1283               	bcf	status, 5	;RP0=0, select bank0
   921  0569  1207               	bcf	(60/8),(60)&7
   922                           	line	318
   923                           	
   924  056A                     l4585:	
   925                           ;main.c: 318: RC5=0;
   926  056A  1287               	bcf	(61/8),(61)&7
   927                           	line	320
   928                           	
   929  056B                     l4587:	
   930                           ;main.c: 320: RC0=0;
   931  056B  1007               	bcf	(56/8),(56)&7
   932                           	line	321
   933                           ;main.c: 321: delay_us(500);
   934  056C  30F4               	movlw	(0F4h)
   935  056D  218E               	fcall	_delay_us
   936                           	line	322
   937                           ;main.c: 322: delay_ms(100);
   938  056E  3064               	movlw	(064h)
   939  056F  21F6               	fcall	_delay_ms
   940                           	line	323
   941                           ;main.c: 323: delay_ms(100);
   942  0570  3064               	movlw	(064h)
   943  0571  21F6               	fcall	_delay_ms
   944                           	line	324
   945                           ;main.c: 324: delay_ms(100);
   946  0572  3064               	movlw	(064h)
   947  0573  21F6               	fcall	_delay_ms
   948                           	line	325
   949                           ;main.c: 325: delay_ms(100);
   950  0574  3064               	movlw	(064h)
   951  0575  21F6               	fcall	_delay_ms
   952                           	line	326
   953                           ;main.c: 326: delay_ms(100);
   954  0576  3064               	movlw	(064h)
   955  0577  21F6               	fcall	_delay_ms
   956                           	line	327
   957                           ;main.c: 327: delay_ms(100);
   958  0578  3064               	movlw	(064h)
   959  0579  21F6               	fcall	_delay_ms
   960                           	line	328
   961                           ;main.c: 328: delay_ms(100);
   962  057A  3064               	movlw	(064h)
   963  057B  21F6               	fcall	_delay_ms
   964                           	line	329
   965                           ;main.c: 329: delay_ms(100);
   966  057C  3064               	movlw	(064h)
   967  057D  21F6               	fcall	_delay_ms
   968                           	line	331
   969                           	
   970  057E                     l4589:	
   971                           ;main.c: 331: N_ADDR=0xD2;
   972  057E  30D2               	movlw	(0D2h)
   973  057F  1283               	bcf	status, 5	;RP0=0, select bank0
   974  0580  00B9               	movwf	(??_main+0)+0
   975  0581  0839               	movf	(??_main+0)+0,w
   976  0582  00BB               	movwf	(_N_ADDR)
   977                           	line	332
   978                           	
   979  0583                     l4591:	
   980                           ;main.c: 332: Nordic_Wakeup();
   981  0583  2366               	fcall	_Nordic_Wakeup
   982                           	line	334
   983                           	
   984  0584                     l4593:	
   985                           ;main.c: 334: N_ADDR=0x52;
   986  0584  3052               	movlw	(052h)
   987  0585  1283               	bcf	status, 5	;RP0=0, select bank0
   988  0586  00B9               	movwf	(??_main+0)+0
   989  0587  0839               	movf	(??_main+0)+0,w
   990  0588  00BB               	movwf	(_N_ADDR)
   991                           	line	335
   992                           	
   993  0589                     l4595:	
   994                           ;main.c: 335: Nordic_Wakeup2();
   995  0589  2466               	fcall	_Nordic_Wakeup2
   996                           	line	337
   997                           	
   998  058A                     l4597:	
   999                           ;main.c: 337: RA2=0;
  1000  058A  1283               	bcf	status, 5	;RP0=0, select bank0
  1001  058B  1105               	bcf	(42/8),(42)&7
  1002                           	line	338
  1003                           	
  1004  058C                     l4599:	
  1005                           ;main.c: 338: RA4=0;
  1006  058C  1205               	bcf	(44/8),(44)&7
  1007                           	line	340
  1008                           ;main.c: 340: delay_ms(100);
  1009  058D  3064               	movlw	(064h)
  1010  058E  21F6               	fcall	_delay_ms
  1011  058F  2D90               	goto	l4601
  1012                           	line	342
  1013                           ;main.c: 342: while(1)
  1014                           	
  1015  0590                     l1792:	
  1016                           	line	344
  1017                           	
  1018  0590                     l4601:	
  1019                           ;main.c: 343: {
  1020                           ;main.c: 344: N_ADDR=0xD2;
  1021  0590  30D2               	movlw	(0D2h)
  1022  0591  1283               	bcf	status, 5	;RP0=0, select bank0
  1023  0592  00B9               	movwf	(??_main+0)+0
  1024  0593  0839               	movf	(??_main+0)+0,w
  1025  0594  00BB               	movwf	(_N_ADDR)
  1026                           	line	345
  1027                           	
  1028  0595                     l4603:	
  1029                           ;main.c: 345: if(!(Nordic_Read(0x03)&0x01))
  1030  0595  3003               	movlw	(03h)
  1031  0596  22B1               	fcall	_Nordic_Read
  1032  0597  1283               	bcf	status, 5	;RP0=0, select bank0
  1033  0598  00B9               	movwf	(??_main+0)+0
  1034  0599  1839               	btfsc	0+(??_main+0)+0,(0)&7
  1035  059A  2D9C               	goto	u3361
  1036  059B  2D9D               	goto	u3360
  1037  059C                     u3361:
  1038  059C  2DA5               	goto	l1793
  1039  059D                     u3360:
  1040                           	line	347
  1041                           	
  1042  059D                     l4605:	
  1043                           ;main.c: 346: {
  1044                           ;main.c: 347: RA4=1;
  1045  059D  1605               	bsf	(44/8),(44)&7
  1046                           	line	348
  1047                           	
  1048  059E                     l4607:	
  1049                           ;main.c: 348: delay_ms(255);
  1050  059E  30FF               	movlw	(0FFh)
  1051  059F  21F6               	fcall	_delay_ms
  1052                           	line	349
  1053                           	
  1054  05A0                     l4609:	
  1055                           ;main.c: 349: RA4=0;
  1056  05A0  1283               	bcf	status, 5	;RP0=0, select bank0
  1057  05A1  1205               	bcf	(44/8),(44)&7
  1058                           	line	350
  1059                           ;main.c: 350: delay_ms(255);
  1060  05A2  30FF               	movlw	(0FFh)
  1061  05A3  21F6               	fcall	_delay_ms
  1062                           	line	351
  1063                           ;main.c: 351: }
  1064  05A4  2DA7               	goto	l4611
  1065                           	line	352
  1066                           	
  1067  05A5                     l1793:	
  1068                           	line	354
  1069                           ;main.c: 352: else
  1070                           ;main.c: 353: {
  1071                           ;main.c: 354: RA4=1;
  1072  05A5  1605               	bsf	(44/8),(44)&7
  1073  05A6  2DA7               	goto	l4611
  1074                           	line	355
  1075                           	
  1076  05A7                     l1794:	
  1077                           	line	358
  1078                           	
  1079  05A7                     l4611:	
  1080                           ;main.c: 355: }
  1081                           ;main.c: 358: N_ADDR=0x52;
  1082  05A7  3052               	movlw	(052h)
  1083  05A8  1283               	bcf	status, 5	;RP0=0, select bank0
  1084  05A9  00B9               	movwf	(??_main+0)+0
  1085  05AA  0839               	movf	(??_main+0)+0,w
  1086  05AB  00BB               	movwf	(_N_ADDR)
  1087                           	line	359
  1088                           	
  1089  05AC                     l4613:	
  1090                           ;main.c: 359: if(!(Nordic_Read(0x03)&0x01))
  1091  05AC  3003               	movlw	(03h)
  1092  05AD  22B1               	fcall	_Nordic_Read
  1093  05AE  1283               	bcf	status, 5	;RP0=0, select bank0
  1094  05AF  00B9               	movwf	(??_main+0)+0
  1095  05B0  1839               	btfsc	0+(??_main+0)+0,(0)&7
  1096  05B1  2DB3               	goto	u3371
  1097  05B2  2DB4               	goto	u3370
  1098  05B3                     u3371:
  1099  05B3  2DBC               	goto	l1795
  1100  05B4                     u3370:
  1101                           	line	361
  1102                           	
  1103  05B4                     l4615:	
  1104                           ;main.c: 360: {
  1105                           ;main.c: 361: RA2=1;
  1106  05B4  1505               	bsf	(42/8),(42)&7
  1107                           	line	362
  1108                           	
  1109  05B5                     l4617:	
  1110                           ;main.c: 362: delay_ms(255);
  1111  05B5  30FF               	movlw	(0FFh)
  1112  05B6  21F6               	fcall	_delay_ms
  1113                           	line	363
  1114                           	
  1115  05B7                     l4619:	
  1116                           ;main.c: 363: RA2=0;
  1117  05B7  1283               	bcf	status, 5	;RP0=0, select bank0
  1118  05B8  1105               	bcf	(42/8),(42)&7
  1119                           	line	364
  1120                           ;main.c: 364: delay_ms(255);
  1121  05B9  30FF               	movlw	(0FFh)
  1122  05BA  21F6               	fcall	_delay_ms
  1123                           	line	365
  1124                           ;main.c: 365: }
  1125  05BB  2DBE               	goto	l4621
  1126                           	line	366
  1127                           	
  1128  05BC                     l1795:	
  1129                           	line	368
  1130                           ;main.c: 366: else
  1131                           ;main.c: 367: {
  1132                           ;main.c: 368: RA2=1;
  1133  05BC  1505               	bsf	(42/8),(42)&7
  1134  05BD  2DBE               	goto	l4621
  1135                           	line	369
  1136                           	
  1137  05BE                     l1796:	
  1138                           	line	370
  1139                           	
  1140  05BE                     l4621:	
  1141                           ;main.c: 369: }
  1142                           ;main.c: 370: delay_ms(255);
  1143  05BE  30FF               	movlw	(0FFh)
  1144  05BF  21F6               	fcall	_delay_ms
  1145                           	line	374
  1146                           	
  1147  05C0                     l4623:	
  1148                           ;main.c: 374: if (!RA5)
  1149  05C0  1283               	bcf	status, 5	;RP0=0, select bank0
  1150  05C1  1A85               	btfsc	(45/8),(45)&7
  1151  05C2  2DC4               	goto	u3381
  1152  05C3  2DC5               	goto	u3380
  1153  05C4                     u3381:
  1154  05C4  2D90               	goto	l4601
  1155  05C5                     u3380:
  1156                           	line	376
  1157                           	
  1158  05C5                     l4625:	
  1159                           ;main.c: 375: {
  1160                           ;main.c: 376: delay_ms(255);
  1161  05C5  30FF               	movlw	(0FFh)
  1162  05C6  21F6               	fcall	_delay_ms
  1163                           	line	377
  1164                           ;main.c: 377: delay_ms(255);
  1165  05C7  30FF               	movlw	(0FFh)
  1166  05C8  21F6               	fcall	_delay_ms
  1167                           	line	378
  1168                           ;main.c: 378: delay_ms(255);
  1169  05C9  30FF               	movlw	(0FFh)
  1170  05CA  21F6               	fcall	_delay_ms
  1171                           	line	379
  1172                           	
  1173  05CB                     l4627:	
  1174                           ;main.c: 379: if (!RA5)
  1175  05CB  1283               	bcf	status, 5	;RP0=0, select bank0
  1176  05CC  1A85               	btfsc	(45/8),(45)&7
  1177  05CD  2DCF               	goto	u3391
  1178  05CE  2DD0               	goto	u3390
  1179  05CF                     u3391:
  1180  05CF  2D90               	goto	l4601
  1181  05D0                     u3390:
  1182                           	line	381
  1183                           	
  1184  05D0                     l4629:	
  1185                           ;main.c: 380: {
  1186                           ;main.c: 381: RC4=1;RC5=1;
  1187  05D0  1607               	bsf	(60/8),(60)&7
  1188  05D1  1687               	bsf	(61/8),(61)&7
  1189                           	line	383
  1190                           ;main.c: 383: while(!RA5)
  1191  05D2  2DDD               	goto	l4637
  1192                           	
  1193  05D3                     l1800:	
  1194                           	line	385
  1195                           ;main.c: 384: {
  1196                           ;main.c: 385: RA2=1;
  1197  05D3  1505               	bsf	(42/8),(42)&7
  1198                           	line	386
  1199                           ;main.c: 386: RA4=1;
  1200  05D4  1605               	bsf	(44/8),(44)&7
  1201                           	line	387
  1202                           	
  1203  05D5                     l4631:	
  1204                           ;main.c: 387: delay_ms(100);
  1205  05D5  3064               	movlw	(064h)
  1206  05D6  21F6               	fcall	_delay_ms
  1207                           	line	388
  1208                           	
  1209  05D7                     l4633:	
  1210                           ;main.c: 388: RA2=0;
  1211  05D7  1283               	bcf	status, 5	;RP0=0, select bank0
  1212  05D8  1105               	bcf	(42/8),(42)&7
  1213                           	line	389
  1214                           	
  1215  05D9                     l4635:	
  1216                           ;main.c: 389: RA4=0;
  1217  05D9  1205               	bcf	(44/8),(44)&7
  1218                           	line	390
  1219                           ;main.c: 390: delay_ms(100);
  1220  05DA  3064               	movlw	(064h)
  1221  05DB  21F6               	fcall	_delay_ms
  1222  05DC  2DDD               	goto	l4637
  1223                           	line	391
  1224                           	
  1225  05DD                     l1799:	
  1226                           	line	383
  1227                           	
  1228  05DD                     l4637:	
  1229  05DD  1283               	bcf	status, 5	;RP0=0, select bank0
  1230  05DE  1E85               	btfss	(45/8),(45)&7
  1231  05DF  2DE1               	goto	u3401
  1232  05E0  2DE2               	goto	u3400
  1233  05E1                     u3401:
  1234  05E1  2DD3               	goto	l1800
  1235  05E2                     u3400:
  1236  05E2  2DE3               	goto	l4639
  1237                           	
  1238  05E3                     l1801:	
  1239                           	line	393
  1240                           	
  1241  05E3                     l4639:	
  1242                           ;main.c: 391: }
  1243                           ;main.c: 393: N_ADDR=0xD2;
  1244  05E3  30D2               	movlw	(0D2h)
  1245  05E4  00B9               	movwf	(??_main+0)+0
  1246  05E5  0839               	movf	(??_main+0)+0,w
  1247  05E6  00BB               	movwf	(_N_ADDR)
  1248                           	line	394
  1249                           	
  1250  05E7                     l4641:	
  1251                           ;main.c: 394: Nordic_Send(0x39, 0x00);
  1252  05E7  01F7               	clrf	(?_Nordic_Send)
  1253  05E8  3039               	movlw	(039h)
  1254  05E9  2254               	fcall	_Nordic_Send
  1255                           	line	395
  1256                           	
  1257  05EA                     l4643:	
  1258                           ;main.c: 395: Nordic_Send(0x3A, 0x1A);
  1259  05EA  301A               	movlw	(01Ah)
  1260  05EB  1283               	bcf	status, 5	;RP0=0, select bank0
  1261  05EC  00B9               	movwf	(??_main+0)+0
  1262  05ED  0839               	movf	(??_main+0)+0,w
  1263  05EE  00F7               	movwf	(?_Nordic_Send)
  1264  05EF  303A               	movlw	(03Ah)
  1265  05F0  2254               	fcall	_Nordic_Send
  1266                           	line	396
  1267                           	
  1268  05F1                     l4645:	
  1269                           ;main.c: 396: Nordic_Send(0x3B, 0x2B);
  1270  05F1  302B               	movlw	(02Bh)
  1271  05F2  1283               	bcf	status, 5	;RP0=0, select bank0
  1272  05F3  00B9               	movwf	(??_main+0)+0
  1273  05F4  0839               	movf	(??_main+0)+0,w
  1274  05F5  00F7               	movwf	(?_Nordic_Send)
  1275  05F6  303B               	movlw	(03Bh)
  1276  05F7  2254               	fcall	_Nordic_Send
  1277                           	line	397
  1278                           	
  1279  05F8                     l4647:	
  1280                           ;main.c: 397: Nordic_Send(0x3C, 0x3C);
  1281  05F8  303C               	movlw	(03Ch)
  1282  05F9  1283               	bcf	status, 5	;RP0=0, select bank0
  1283  05FA  00B9               	movwf	(??_main+0)+0
  1284  05FB  0839               	movf	(??_main+0)+0,w
  1285  05FC  00F7               	movwf	(?_Nordic_Send)
  1286  05FD  303C               	movlw	(03Ch)
  1287  05FE  2254               	fcall	_Nordic_Send
  1288                           	line	398
  1289                           	
  1290  05FF                     l4649:	
  1291                           ;main.c: 398: Nordic_Send(0x3D, 0x4D);
  1292  05FF  304D               	movlw	(04Dh)
  1293  0600  1283               	bcf	status, 5	;RP0=0, select bank0
  1294  0601  00B9               	movwf	(??_main+0)+0
  1295  0602  0839               	movf	(??_main+0)+0,w
  1296  0603  00F7               	movwf	(?_Nordic_Send)
  1297  0604  303D               	movlw	(03Dh)
  1298  0605  2254               	fcall	_Nordic_Send
  1299                           	line	399
  1300                           	
  1301  0606                     l4651:	
  1302                           ;main.c: 399: Nordic_Send(0x36, 0x10);
  1303  0606  3010               	movlw	(010h)
  1304  0607  1283               	bcf	status, 5	;RP0=0, select bank0
  1305  0608  00B9               	movwf	(??_main+0)+0
  1306  0609  0839               	movf	(??_main+0)+0,w
  1307  060A  00F7               	movwf	(?_Nordic_Send)
  1308  060B  3036               	movlw	(036h)
  1309  060C  2254               	fcall	_Nordic_Send
  1310                           	line	401
  1311                           ;main.c: 401: N_ADDR=0x52;
  1312  060D  3052               	movlw	(052h)
  1313  060E  1283               	bcf	status, 5	;RP0=0, select bank0
  1314  060F  00B9               	movwf	(??_main+0)+0
  1315  0610  0839               	movf	(??_main+0)+0,w
  1316  0611  00BB               	movwf	(_N_ADDR)
  1317                           	line	402
  1318                           	
  1319  0612                     l4653:	
  1320                           ;main.c: 402: Nordic_Send(0x39, 0x5D);
  1321  0612  305D               	movlw	(05Dh)
  1322  0613  00B9               	movwf	(??_main+0)+0
  1323  0614  0839               	movf	(??_main+0)+0,w
  1324  0615  00F7               	movwf	(?_Nordic_Send)
  1325  0616  3039               	movlw	(039h)
  1326  0617  2254               	fcall	_Nordic_Send
  1327                           	line	403
  1328                           	
  1329  0618                     l4655:	
  1330                           ;main.c: 403: Nordic_Send(0x3A, 0x6C);
  1331  0618  306C               	movlw	(06Ch)
  1332  0619  1283               	bcf	status, 5	;RP0=0, select bank0
  1333  061A  00B9               	movwf	(??_main+0)+0
  1334  061B  0839               	movf	(??_main+0)+0,w
  1335  061C  00F7               	movwf	(?_Nordic_Send)
  1336  061D  303A               	movlw	(03Ah)
  1337  061E  2254               	fcall	_Nordic_Send
  1338                           	line	404
  1339                           	
  1340  061F                     l4657:	
  1341                           ;main.c: 404: Nordic_Send(0x3B, 0x7B);
  1342  061F  307B               	movlw	(07Bh)
  1343  0620  1283               	bcf	status, 5	;RP0=0, select bank0
  1344  0621  00B9               	movwf	(??_main+0)+0
  1345  0622  0839               	movf	(??_main+0)+0,w
  1346  0623  00F7               	movwf	(?_Nordic_Send)
  1347  0624  303B               	movlw	(03Bh)
  1348  0625  2254               	fcall	_Nordic_Send
  1349                           	line	405
  1350                           	
  1351  0626                     l4659:	
  1352                           ;main.c: 405: Nordic_Send(0x3C, 0x8A);
  1353  0626  308A               	movlw	(08Ah)
  1354  0627  1283               	bcf	status, 5	;RP0=0, select bank0
  1355  0628  00B9               	movwf	(??_main+0)+0
  1356  0629  0839               	movf	(??_main+0)+0,w
  1357  062A  00F7               	movwf	(?_Nordic_Send)
  1358  062B  303C               	movlw	(03Ch)
  1359  062C  2254               	fcall	_Nordic_Send
  1360                           	line	406
  1361                           	
  1362  062D                     l4661:	
  1363                           ;main.c: 406: Nordic_Send(0x3D, 0x90);
  1364  062D  3090               	movlw	(090h)
  1365  062E  1283               	bcf	status, 5	;RP0=0, select bank0
  1366  062F  00B9               	movwf	(??_main+0)+0
  1367  0630  0839               	movf	(??_main+0)+0,w
  1368  0631  00F7               	movwf	(?_Nordic_Send)
  1369  0632  303D               	movlw	(03Dh)
  1370  0633  2254               	fcall	_Nordic_Send
  1371                           	line	407
  1372                           	
  1373  0634                     l4663:	
  1374                           ;main.c: 407: Nordic_Send(0x36, 0x10);
  1375  0634  3010               	movlw	(010h)
  1376  0635  1283               	bcf	status, 5	;RP0=0, select bank0
  1377  0636  00B9               	movwf	(??_main+0)+0
  1378  0637  0839               	movf	(??_main+0)+0,w
  1379  0638  00F7               	movwf	(?_Nordic_Send)
  1380  0639  3036               	movlw	(036h)
  1381  063A  2254               	fcall	_Nordic_Send
  1382                           	line	411
  1383                           ;main.c: 411: while ((red_address_changed == 0) && (blue_address_changed == 0) && (timeo
                                 ut !=1 ))
  1384  063B  2EE5               	goto	l4723
  1385                           	
  1386  063C                     l1803:	
  1387                           	line	413
  1388                           	
  1389  063C                     l4665:	
  1390                           ;main.c: 412: {
  1391                           ;main.c: 413: N_ADDR=0xD2;
  1392  063C  30D2               	movlw	(0D2h)
  1393  063D  1283               	bcf	status, 5	;RP0=0, select bank0
  1394  063E  00B9               	movwf	(??_main+0)+0
  1395  063F  0839               	movf	(??_main+0)+0,w
  1396  0640  00BB               	movwf	(_N_ADDR)
  1397                           	line	414
  1398                           	
  1399  0641                     l4667:	
  1400                           ;main.c: 414: if (Nordic_Read(0x39)!=0x00)
  1401  0641  3039               	movlw	(039h)
  1402  0642  22B1               	fcall	_Nordic_Read
  1403  0643  3A00               	xorlw	0
  1404  0644  1903               	skipnz
  1405  0645  2E47               	goto	u3411
  1406  0646  2E48               	goto	u3410
  1407  0647                     u3411:
  1408  0647  2E4E               	goto	l4671
  1409  0648                     u3410:
  1410                           	line	415
  1411                           	
  1412  0648                     l4669:	
  1413                           ;main.c: 415: red_address_changed=1;
  1414  0648  3001               	movlw	low(01h)
  1415  0649  1283               	bcf	status, 5	;RP0=0, select bank0
  1416  064A  00AA               	movwf	(_red_address_changed)
  1417  064B  3000               	movlw	high(01h)
  1418  064C  00AB               	movwf	((_red_address_changed))+1
  1419  064D  2E4E               	goto	l4671
  1420                           	
  1421  064E                     l1804:	
  1422                           	line	416
  1423                           	
  1424  064E                     l4671:	
  1425                           ;main.c: 416: if (Nordic_Read(0x3A)!=0x1A)
  1426  064E  303A               	movlw	(03Ah)
  1427  064F  22B1               	fcall	_Nordic_Read
  1428  0650  3A1A               	xorlw	01Ah
  1429  0651  1903               	skipnz
  1430  0652  2E54               	goto	u3421
  1431  0653  2E55               	goto	u3420
  1432  0654                     u3421:
  1433  0654  2E5B               	goto	l4675
  1434  0655                     u3420:
  1435                           	line	417
  1436                           	
  1437  0655                     l4673:	
  1438                           ;main.c: 417: red_address_changed=1;
  1439  0655  3001               	movlw	low(01h)
  1440  0656  1283               	bcf	status, 5	;RP0=0, select bank0
  1441  0657  00AA               	movwf	(_red_address_changed)
  1442  0658  3000               	movlw	high(01h)
  1443  0659  00AB               	movwf	((_red_address_changed))+1
  1444  065A  2E5B               	goto	l4675
  1445                           	
  1446  065B                     l1805:	
  1447                           	line	418
  1448                           	
  1449  065B                     l4675:	
  1450                           ;main.c: 418: if (Nordic_Read(0x3B)!=0x2B)
  1451  065B  303B               	movlw	(03Bh)
  1452  065C  22B1               	fcall	_Nordic_Read
  1453  065D  3A2B               	xorlw	02Bh
  1454  065E  1903               	skipnz
  1455  065F  2E61               	goto	u3431
  1456  0660  2E62               	goto	u3430
  1457  0661                     u3431:
  1458  0661  2E68               	goto	l4679
  1459  0662                     u3430:
  1460                           	line	419
  1461                           	
  1462  0662                     l4677:	
  1463                           ;main.c: 419: red_address_changed=1;
  1464  0662  3001               	movlw	low(01h)
  1465  0663  1283               	bcf	status, 5	;RP0=0, select bank0
  1466  0664  00AA               	movwf	(_red_address_changed)
  1467  0665  3000               	movlw	high(01h)
  1468  0666  00AB               	movwf	((_red_address_changed))+1
  1469  0667  2E68               	goto	l4679
  1470                           	
  1471  0668                     l1806:	
  1472                           	line	420
  1473                           	
  1474  0668                     l4679:	
  1475                           ;main.c: 420: if (Nordic_Read(0x3C)!=0x3C)
  1476  0668  303C               	movlw	(03Ch)
  1477  0669  22B1               	fcall	_Nordic_Read
  1478  066A  3A3C               	xorlw	03Ch
  1479  066B  1903               	skipnz
  1480  066C  2E6E               	goto	u3441
  1481  066D  2E6F               	goto	u3440
  1482  066E                     u3441:
  1483  066E  2E75               	goto	l4683
  1484  066F                     u3440:
  1485                           	line	421
  1486                           	
  1487  066F                     l4681:	
  1488                           ;main.c: 421: red_address_changed=1;
  1489  066F  3001               	movlw	low(01h)
  1490  0670  1283               	bcf	status, 5	;RP0=0, select bank0
  1491  0671  00AA               	movwf	(_red_address_changed)
  1492  0672  3000               	movlw	high(01h)
  1493  0673  00AB               	movwf	((_red_address_changed))+1
  1494  0674  2E75               	goto	l4683
  1495                           	
  1496  0675                     l1807:	
  1497                           	line	422
  1498                           	
  1499  0675                     l4683:	
  1500                           ;main.c: 422: if (Nordic_Read(0x3D)!=0x4D)
  1501  0675  303D               	movlw	(03Dh)
  1502  0676  22B1               	fcall	_Nordic_Read
  1503  0677  3A4D               	xorlw	04Dh
  1504  0678  1903               	skipnz
  1505  0679  2E7B               	goto	u3451
  1506  067A  2E7C               	goto	u3450
  1507  067B                     u3451:
  1508  067B  2E81               	goto	l1808
  1509  067C                     u3450:
  1510                           	line	423
  1511                           	
  1512  067C                     l4685:	
  1513                           ;main.c: 423: red_address_changed=1;
  1514  067C  3001               	movlw	low(01h)
  1515  067D  1283               	bcf	status, 5	;RP0=0, select bank0
  1516  067E  00AA               	movwf	(_red_address_changed)
  1517  067F  3000               	movlw	high(01h)
  1518  0680  00AB               	movwf	((_red_address_changed))+1
  1519                           	
  1520  0681                     l1808:	
  1521                           	line	425
  1522                           ;main.c: 425: N_ADDR=0x52;
  1523  0681  3052               	movlw	(052h)
  1524  0682  1283               	bcf	status, 5	;RP0=0, select bank0
  1525  0683  00B9               	movwf	(??_main+0)+0
  1526  0684  0839               	movf	(??_main+0)+0,w
  1527  0685  00BB               	movwf	(_N_ADDR)
  1528                           	line	426
  1529                           	
  1530  0686                     l4687:	
  1531                           ;main.c: 426: if (Nordic_Read(0x39)!=0x5D)
  1532  0686  3039               	movlw	(039h)
  1533  0687  22B1               	fcall	_Nordic_Read
  1534  0688  3A5D               	xorlw	05Dh
  1535  0689  1903               	skipnz
  1536  068A  2E8C               	goto	u3461
  1537  068B  2E8D               	goto	u3460
  1538  068C                     u3461:
  1539  068C  2E93               	goto	l4691
  1540  068D                     u3460:
  1541                           	line	427
  1542                           	
  1543  068D                     l4689:	
  1544                           ;main.c: 427: blue_address_changed=1;
  1545  068D  3001               	movlw	low(01h)
  1546  068E  1283               	bcf	status, 5	;RP0=0, select bank0
  1547  068F  00A4               	movwf	(_blue_address_changed)
  1548  0690  3000               	movlw	high(01h)
  1549  0691  00A5               	movwf	((_blue_address_changed))+1
  1550  0692  2E93               	goto	l4691
  1551                           	
  1552  0693                     l1809:	
  1553                           	line	428
  1554                           	
  1555  0693                     l4691:	
  1556                           ;main.c: 428: if (Nordic_Read(0x3A)!=0x6C)
  1557  0693  303A               	movlw	(03Ah)
  1558  0694  22B1               	fcall	_Nordic_Read
  1559  0695  3A6C               	xorlw	06Ch
  1560  0696  1903               	skipnz
  1561  0697  2E99               	goto	u3471
  1562  0698  2E9A               	goto	u3470
  1563  0699                     u3471:
  1564  0699  2EA0               	goto	l4695
  1565  069A                     u3470:
  1566                           	line	429
  1567                           	
  1568  069A                     l4693:	
  1569                           ;main.c: 429: blue_address_changed=1;
  1570  069A  3001               	movlw	low(01h)
  1571  069B  1283               	bcf	status, 5	;RP0=0, select bank0
  1572  069C  00A4               	movwf	(_blue_address_changed)
  1573  069D  3000               	movlw	high(01h)
  1574  069E  00A5               	movwf	((_blue_address_changed))+1
  1575  069F  2EA0               	goto	l4695
  1576                           	
  1577  06A0                     l1810:	
  1578                           	line	430
  1579                           	
  1580  06A0                     l4695:	
  1581                           ;main.c: 430: if (Nordic_Read(0x3B)!=0x7B)
  1582  06A0  303B               	movlw	(03Bh)
  1583  06A1  22B1               	fcall	_Nordic_Read
  1584  06A2  3A7B               	xorlw	07Bh
  1585  06A3  1903               	skipnz
  1586  06A4  2EA6               	goto	u3481
  1587  06A5  2EA7               	goto	u3480
  1588  06A6                     u3481:
  1589  06A6  2EAD               	goto	l4699
  1590  06A7                     u3480:
  1591                           	line	431
  1592                           	
  1593  06A7                     l4697:	
  1594                           ;main.c: 431: blue_address_changed=1;
  1595  06A7  3001               	movlw	low(01h)
  1596  06A8  1283               	bcf	status, 5	;RP0=0, select bank0
  1597  06A9  00A4               	movwf	(_blue_address_changed)
  1598  06AA  3000               	movlw	high(01h)
  1599  06AB  00A5               	movwf	((_blue_address_changed))+1
  1600  06AC  2EAD               	goto	l4699
  1601                           	
  1602  06AD                     l1811:	
  1603                           	line	432
  1604                           	
  1605  06AD                     l4699:	
  1606                           ;main.c: 432: if (Nordic_Read(0x3C)!=0x8A)
  1607  06AD  303C               	movlw	(03Ch)
  1608  06AE  22B1               	fcall	_Nordic_Read
  1609  06AF  3A8A               	xorlw	08Ah
  1610  06B0  1903               	skipnz
  1611  06B1  2EB3               	goto	u3491
  1612  06B2  2EB4               	goto	u3490
  1613  06B3                     u3491:
  1614  06B3  2EBA               	goto	l4703
  1615  06B4                     u3490:
  1616                           	line	433
  1617                           	
  1618  06B4                     l4701:	
  1619                           ;main.c: 433: blue_address_changed=1;
  1620  06B4  3001               	movlw	low(01h)
  1621  06B5  1283               	bcf	status, 5	;RP0=0, select bank0
  1622  06B6  00A4               	movwf	(_blue_address_changed)
  1623  06B7  3000               	movlw	high(01h)
  1624  06B8  00A5               	movwf	((_blue_address_changed))+1
  1625  06B9  2EBA               	goto	l4703
  1626                           	
  1627  06BA                     l1812:	
  1628                           	line	434
  1629                           	
  1630  06BA                     l4703:	
  1631                           ;main.c: 434: if (Nordic_Read(0x3D)!=0x90)
  1632  06BA  303D               	movlw	(03Dh)
  1633  06BB  22B1               	fcall	_Nordic_Read
  1634  06BC  3A90               	xorlw	090h
  1635  06BD  1903               	skipnz
  1636  06BE  2EC0               	goto	u3501
  1637  06BF  2EC1               	goto	u3500
  1638  06C0                     u3501:
  1639  06C0  2EC6               	goto	l1813
  1640  06C1                     u3500:
  1641                           	line	435
  1642                           	
  1643  06C1                     l4705:	
  1644                           ;main.c: 435: blue_address_changed=1;
  1645  06C1  3001               	movlw	low(01h)
  1646  06C2  1283               	bcf	status, 5	;RP0=0, select bank0
  1647  06C3  00A4               	movwf	(_blue_address_changed)
  1648  06C4  3000               	movlw	high(01h)
  1649  06C5  00A5               	movwf	((_blue_address_changed))+1
  1650                           	
  1651  06C6                     l1813:	
  1652                           	line	437
  1653                           ;main.c: 437: i++;
  1654  06C6  3001               	movlw	low(01h)
  1655  06C7  1283               	bcf	status, 5	;RP0=0, select bank0
  1656  06C8  07A8               	addwf	(_i),f
  1657  06C9  1803               	skipnc
  1658  06CA  0AA9               	incf	(_i+1),f
  1659  06CB  3000               	movlw	high(01h)
  1660  06CC  07A9               	addwf	(_i+1),f
  1661                           	line	438
  1662                           ;main.c: 438: if (i==60)
  1663  06CD  303C               	movlw	03Ch
  1664  06CE  0628               	xorwf	(_i),w
  1665  06CF  0429               	iorwf	(_i+1),w
  1666  06D0  1D03               	skipz
  1667  06D1  2ED3               	goto	u3511
  1668  06D2  2ED4               	goto	u3510
  1669  06D3                     u3511:
  1670  06D3  2EDB               	goto	l4711
  1671  06D4                     u3510:
  1672                           	line	440
  1673                           	
  1674  06D4                     l4707:	
  1675                           ;main.c: 439: {
  1676                           ;main.c: 440: timeout=1;
  1677  06D4  3001               	movlw	low(01h)
  1678  06D5  00AC               	movwf	(_timeout)
  1679  06D6  3000               	movlw	high(01h)
  1680  06D7  00AD               	movwf	((_timeout))+1
  1681                           	line	441
  1682                           	
  1683  06D8                     l4709:	
  1684                           ;main.c: 441: i=0;
  1685  06D8  01A8               	clrf	(_i)
  1686  06D9  01A9               	clrf	(_i+1)
  1687  06DA  2EDB               	goto	l4711
  1688                           	line	442
  1689                           	
  1690  06DB                     l1814:	
  1691                           	line	444
  1692                           	
  1693  06DB                     l4711:	
  1694                           ;main.c: 442: }
  1695                           ;main.c: 444: RA2=1;
  1696  06DB  1505               	bsf	(42/8),(42)&7
  1697                           	line	445
  1698                           	
  1699  06DC                     l4713:	
  1700                           ;main.c: 445: RA4=1;
  1701  06DC  1605               	bsf	(44/8),(44)&7
  1702                           	line	446
  1703                           	
  1704  06DD                     l4715:	
  1705                           ;main.c: 446: delay_ms(100);
  1706  06DD  3064               	movlw	(064h)
  1707  06DE  21F6               	fcall	_delay_ms
  1708                           	line	447
  1709                           	
  1710  06DF                     l4717:	
  1711                           ;main.c: 447: RA2=0;
  1712  06DF  1283               	bcf	status, 5	;RP0=0, select bank0
  1713  06E0  1105               	bcf	(42/8),(42)&7
  1714                           	line	448
  1715                           	
  1716  06E1                     l4719:	
  1717                           ;main.c: 448: RA4=0;
  1718  06E1  1205               	bcf	(44/8),(44)&7
  1719                           	line	449
  1720                           	
  1721  06E2                     l4721:	
  1722                           ;main.c: 449: delay_ms(100);
  1723  06E2  3064               	movlw	(064h)
  1724  06E3  21F6               	fcall	_delay_ms
  1725  06E4  2EE5               	goto	l4723
  1726                           	line	450
  1727                           	
  1728  06E5                     l1802:	
  1729                           	line	411
  1730                           	
  1731  06E5                     l4723:	
  1732  06E5  1283               	bcf	status, 5	;RP0=0, select bank0
  1733  06E6  082B               	movf	((_red_address_changed+1)),w
  1734  06E7  042A               	iorwf	((_red_address_changed)),w
  1735  06E8  1D03               	skipz
  1736  06E9  2EEB               	goto	u3521
  1737  06EA  2EEC               	goto	u3520
  1738  06EB                     u3521:
  1739  06EB  2EFB               	goto	l4729
  1740  06EC                     u3520:
  1741                           	
  1742  06EC                     l4725:	
  1743  06EC  0825               	movf	((_blue_address_changed+1)),w
  1744  06ED  0424               	iorwf	((_blue_address_changed)),w
  1745  06EE  1D03               	skipz
  1746  06EF  2EF1               	goto	u3531
  1747  06F0  2EF2               	goto	u3530
  1748  06F1                     u3531:
  1749  06F1  2EFB               	goto	l4729
  1750  06F2                     u3530:
  1751                           	
  1752  06F2                     l4727:	
  1753  06F2  3001               	movlw	01h
  1754  06F3  062C               	xorwf	(_timeout),w
  1755  06F4  042D               	iorwf	(_timeout+1),w
  1756  06F5  1D03               	skipz
  1757  06F6  2EF8               	goto	u3541
  1758  06F7  2EF9               	goto	u3540
  1759  06F8                     u3541:
  1760  06F8  2E3C               	goto	l4665
  1761  06F9                     u3540:
  1762  06F9  2EFB               	goto	l4729
  1763                           	
  1764  06FA                     l1816:	
  1765  06FA  2EFB               	goto	l4729
  1766                           	
  1767  06FB                     l1817:	
  1768                           	line	452
  1769                           	
  1770  06FB                     l4729:	
  1771                           ;main.c: 450: }
  1772                           ;main.c: 452: if (timeout != 1)
  1773  06FB  3001               	movlw	01h
  1774  06FC  062C               	xorwf	(_timeout),w
  1775  06FD  042D               	iorwf	(_timeout+1),w
  1776  06FE  1903               	skipnz
  1777  06FF  2F01               	goto	u3551
  1778  0700  2F02               	goto	u3550
  1779  0701                     u3551:
  1780  0701  2FEE               	goto	l4803
  1781  0702                     u3550:
  1782                           	line	454
  1783                           	
  1784  0702                     l4731:	
  1785                           ;main.c: 453: {
  1786                           ;main.c: 454: for (i=0;i<5;i++)
  1787  0702  01A8               	clrf	(_i)
  1788  0703  01A9               	clrf	(_i+1)
  1789                           	
  1790  0704                     l4733:	
  1791  0704  3000               	movlw	high(05h)
  1792  0705  0229               	subwf	(_i+1),w
  1793  0706  3005               	movlw	low(05h)
  1794  0707  1903               	skipnz
  1795  0708  0228               	subwf	(_i),w
  1796  0709  1C03               	skipc
  1797  070A  2F0C               	goto	u3561
  1798  070B  2F0D               	goto	u3560
  1799  070C                     u3561:
  1800  070C  2F0F               	goto	l4737
  1801  070D                     u3560:
  1802  070D  2F22               	goto	l4743
  1803                           	
  1804  070E                     l4735:	
  1805  070E  2F22               	goto	l4743
  1806                           	line	455
  1807                           	
  1808  070F                     l1819:	
  1809                           	
  1810  070F                     l4737:	
  1811                           ;main.c: 455: delay_ms(255);
  1812  070F  30FF               	movlw	(0FFh)
  1813  0710  21F6               	fcall	_delay_ms
  1814                           	line	454
  1815                           	
  1816  0711                     l4739:	
  1817  0711  3001               	movlw	low(01h)
  1818  0712  1283               	bcf	status, 5	;RP0=0, select bank0
  1819  0713  07A8               	addwf	(_i),f
  1820  0714  1803               	skipnc
  1821  0715  0AA9               	incf	(_i+1),f
  1822  0716  3000               	movlw	high(01h)
  1823  0717  07A9               	addwf	(_i+1),f
  1824                           	
  1825  0718                     l4741:	
  1826  0718  3000               	movlw	high(05h)
  1827  0719  0229               	subwf	(_i+1),w
  1828  071A  3005               	movlw	low(05h)
  1829  071B  1903               	skipnz
  1830  071C  0228               	subwf	(_i),w
  1831  071D  1C03               	skipc
  1832  071E  2F20               	goto	u3571
  1833  071F  2F21               	goto	u3570
  1834  0720                     u3571:
  1835  0720  2F0F               	goto	l4737
  1836  0721                     u3570:
  1837  0721  2F22               	goto	l4743
  1838                           	
  1839  0722                     l1820:	
  1840                           	line	457
  1841                           	
  1842  0722                     l4743:	
  1843                           ;main.c: 457: for (i=0;i<5;i++)
  1844  0722  01A8               	clrf	(_i)
  1845  0723  01A9               	clrf	(_i+1)
  1846                           	
  1847  0724                     l4745:	
  1848  0724  3000               	movlw	high(05h)
  1849  0725  0229               	subwf	(_i+1),w
  1850  0726  3005               	movlw	low(05h)
  1851  0727  1903               	skipnz
  1852  0728  0228               	subwf	(_i),w
  1853  0729  1C03               	skipc
  1854  072A  2F2C               	goto	u3581
  1855  072B  2F2D               	goto	u3580
  1856  072C                     u3581:
  1857  072C  2F2F               	goto	l4749
  1858  072D                     u3580:
  1859  072D  2FAE               	goto	l4771
  1860                           	
  1861  072E                     l4747:	
  1862  072E  2FAE               	goto	l4771
  1863                           	line	458
  1864                           	
  1865  072F                     l1821:	
  1866                           	line	459
  1867                           	
  1868  072F                     l4749:	
  1869                           ;main.c: 458: {
  1870                           ;main.c: 459: N_ADDR=0xD2;
  1871  072F  30D2               	movlw	(0D2h)
  1872  0730  00B9               	movwf	(??_main+0)+0
  1873  0731  0839               	movf	(??_main+0)+0,w
  1874  0732  00BB               	movwf	(_N_ADDR)
  1875                           	line	460
  1876                           	
  1877  0733                     l4751:	
  1878                           ;main.c: 460: delay_ms(10);
  1879  0733  300A               	movlw	(0Ah)
  1880  0734  21F6               	fcall	_delay_ms
  1881                           	line	461
  1882                           	
  1883  0735                     l4753:	
  1884                           ;main.c: 461: if (red_address_changed==1)
  1885  0735  3001               	movlw	01h
  1886  0736  1283               	bcf	status, 5	;RP0=0, select bank0
  1887  0737  062A               	xorwf	(_red_address_changed),w
  1888  0738  042B               	iorwf	(_red_address_changed+1),w
  1889  0739  1D03               	skipz
  1890  073A  2F3C               	goto	u3591
  1891  073B  2F3D               	goto	u3590
  1892  073C                     u3591:
  1893  073C  2F52               	goto	l4757
  1894  073D                     u3590:
  1895                           	line	463
  1896                           	
  1897  073D                     l4755:	
  1898                           ;main.c: 462: {
  1899                           ;main.c: 463: data=Nordic_Read(0x39+i);
  1900  073D  0828               	movf	(_i),w
  1901  073E  3E39               	addlw	039h
  1902  073F  22B1               	fcall	_Nordic_Read
  1903  0740  1283               	bcf	status, 5	;RP0=0, select bank0
  1904  0741  00B9               	movwf	(??_main+0)+0
  1905  0742  01BA               	clrf	(??_main+0)+0+1
  1906  0743  0839               	movf	0+(??_main+0)+0,w
  1907  0744  00A6               	movwf	(_data)
  1908  0745  083A               	movf	1+(??_main+0)+0,w
  1909  0746  00A7               	movwf	(_data+1)
  1910                           	line	464
  1911                           ;main.c: 464: EEpromWrite(0x39+i,Nordic_Read(0x39+i));
  1912  0747  0828               	movf	(_i),w
  1913  0748  3E39               	addlw	039h
  1914  0749  22B1               	fcall	_Nordic_Read
  1915  074A  1283               	bcf	status, 5	;RP0=0, select bank0
  1916  074B  00B9               	movwf	(??_main+0)+0
  1917  074C  0839               	movf	(??_main+0)+0,w
  1918  074D  00F1               	movwf	(?_EEpromWrite)
  1919  074E  0828               	movf	(_i),w
  1920  074F  3E39               	addlw	039h
  1921  0750  21A9               	fcall	_EEpromWrite
  1922                           	line	465
  1923                           ;main.c: 465: }
  1924  0751  2F65               	goto	l4759
  1925                           	line	466
  1926                           	
  1927  0752                     l1823:	
  1928                           	line	468
  1929                           	
  1930  0752                     l4757:	
  1931                           ;main.c: 466: else
  1932                           ;main.c: 467: {
  1933                           ;main.c: 468: data=EEpromRead(0x39+i);
  1934  0752  1283               	bcf	status, 5	;RP0=0, select bank0
  1935  0753  0828               	movf	(_i),w
  1936  0754  3E39               	addlw	039h
  1937  0755  2175               	fcall	_EEpromRead
  1938  0756  1283               	bcf	status, 5	;RP0=0, select bank0
  1939  0757  00B9               	movwf	(??_main+0)+0
  1940  0758  01BA               	clrf	(??_main+0)+0+1
  1941  0759  0839               	movf	0+(??_main+0)+0,w
  1942  075A  00A6               	movwf	(_data)
  1943  075B  083A               	movf	1+(??_main+0)+0,w
  1944  075C  00A7               	movwf	(_data+1)
  1945                           	line	469
  1946                           ;main.c: 469: Nordic_Readback(0x39+i,data);
  1947  075D  0826               	movf	(_data),w
  1948  075E  00B9               	movwf	(??_main+0)+0
  1949  075F  0839               	movf	(??_main+0)+0,w
  1950  0760  00FC               	movwf	(?_Nordic_Readback)
  1951  0761  0828               	movf	(_i),w
  1952  0762  3E39               	addlw	039h
  1953  0763  21CB               	fcall	_Nordic_Readback
  1954  0764  2F65               	goto	l4759
  1955                           	line	472
  1956                           	
  1957  0765                     l1824:	
  1958                           	line	474
  1959                           	
  1960  0765                     l4759:	
  1961                           ;main.c: 472: }
  1962                           ;main.c: 474: N_ADDR=0x52;
  1963  0765  3052               	movlw	(052h)
  1964  0766  1283               	bcf	status, 5	;RP0=0, select bank0
  1965  0767  00B9               	movwf	(??_main+0)+0
  1966  0768  0839               	movf	(??_main+0)+0,w
  1967  0769  00BB               	movwf	(_N_ADDR)
  1968                           	line	475
  1969                           	
  1970  076A                     l4761:	
  1971                           ;main.c: 475: delay_ms(10);
  1972  076A  300A               	movlw	(0Ah)
  1973  076B  21F6               	fcall	_delay_ms
  1974                           	line	476
  1975                           ;main.c: 476: if (blue_address_changed==1)
  1976  076C  3001               	movlw	01h
  1977  076D  1283               	bcf	status, 5	;RP0=0, select bank0
  1978  076E  0624               	xorwf	(_blue_address_changed),w
  1979  076F  0425               	iorwf	(_blue_address_changed+1),w
  1980  0770  1D03               	skipz
  1981  0771  2F73               	goto	u3601
  1982  0772  2F74               	goto	u3600
  1983  0773                     u3601:
  1984  0773  2F89               	goto	l4765
  1985  0774                     u3600:
  1986                           	line	478
  1987                           	
  1988  0774                     l4763:	
  1989                           ;main.c: 477: {
  1990                           ;main.c: 478: data=Nordic_Read(0x39+i);
  1991  0774  0828               	movf	(_i),w
  1992  0775  3E39               	addlw	039h
  1993  0776  22B1               	fcall	_Nordic_Read
  1994  0777  1283               	bcf	status, 5	;RP0=0, select bank0
  1995  0778  00B9               	movwf	(??_main+0)+0
  1996  0779  01BA               	clrf	(??_main+0)+0+1
  1997  077A  0839               	movf	0+(??_main+0)+0,w
  1998  077B  00A6               	movwf	(_data)
  1999  077C  083A               	movf	1+(??_main+0)+0,w
  2000  077D  00A7               	movwf	(_data+1)
  2001                           	line	479
  2002                           ;main.c: 479: EEpromWrite((0x39+128)+i,Nordic_Read(0x39+i));
  2003  077E  0828               	movf	(_i),w
  2004  077F  3E39               	addlw	039h
  2005  0780  22B1               	fcall	_Nordic_Read
  2006  0781  1283               	bcf	status, 5	;RP0=0, select bank0
  2007  0782  00B9               	movwf	(??_main+0)+0
  2008  0783  0839               	movf	(??_main+0)+0,w
  2009  0784  00F1               	movwf	(?_EEpromWrite)
  2010  0785  0828               	movf	(_i),w
  2011  0786  3EB9               	addlw	0B9h
  2012  0787  21A9               	fcall	_EEpromWrite
  2013                           	line	480
  2014                           ;main.c: 480: }
  2015  0788  2F9B               	goto	l1826
  2016                           	line	481
  2017                           	
  2018  0789                     l1825:	
  2019                           	line	483
  2020                           	
  2021  0789                     l4765:	
  2022                           ;main.c: 481: else
  2023                           ;main.c: 482: {
  2024                           ;main.c: 483: data=EEpromRead((0x39+128)+i);
  2025  0789  1283               	bcf	status, 5	;RP0=0, select bank0
  2026  078A  0828               	movf	(_i),w
  2027  078B  3EB9               	addlw	0B9h
  2028  078C  2175               	fcall	_EEpromRead
  2029  078D  1283               	bcf	status, 5	;RP0=0, select bank0
  2030  078E  00B9               	movwf	(??_main+0)+0
  2031  078F  01BA               	clrf	(??_main+0)+0+1
  2032  0790  0839               	movf	0+(??_main+0)+0,w
  2033  0791  00A6               	movwf	(_data)
  2034  0792  083A               	movf	1+(??_main+0)+0,w
  2035  0793  00A7               	movwf	(_data+1)
  2036                           	line	484
  2037                           ;main.c: 484: Nordic_Readback(0x39+i, data);
  2038  0794  0826               	movf	(_data),w
  2039  0795  00B9               	movwf	(??_main+0)+0
  2040  0796  0839               	movf	(??_main+0)+0,w
  2041  0797  00FC               	movwf	(?_Nordic_Readback)
  2042  0798  0828               	movf	(_i),w
  2043  0799  3E39               	addlw	039h
  2044  079A  21CB               	fcall	_Nordic_Readback
  2045                           	line	486
  2046                           	
  2047  079B                     l1826:	
  2048                           	line	488
  2049                           ;main.c: 486: }
  2050                           ;main.c: 488: delay_ms(50);
  2051  079B  3032               	movlw	(032h)
  2052  079C  21F6               	fcall	_delay_ms
  2053                           	line	457
  2054                           	
  2055  079D                     l4767:	
  2056  079D  3001               	movlw	low(01h)
  2057  079E  1283               	bcf	status, 5	;RP0=0, select bank0
  2058  079F  07A8               	addwf	(_i),f
  2059  07A0  1803               	skipnc
  2060  07A1  0AA9               	incf	(_i+1),f
  2061  07A2  3000               	movlw	high(01h)
  2062  07A3  07A9               	addwf	(_i+1),f
  2063                           	
  2064  07A4                     l4769:	
  2065  07A4  3000               	movlw	high(05h)
  2066  07A5  0229               	subwf	(_i+1),w
  2067  07A6  3005               	movlw	low(05h)
  2068  07A7  1903               	skipnz
  2069  07A8  0228               	subwf	(_i),w
  2070  07A9  1C03               	skipc
  2071  07AA  2FAC               	goto	u3611
  2072  07AB  2FAD               	goto	u3610
  2073  07AC                     u3611:
  2074  07AC  2F2F               	goto	l4749
  2075  07AD                     u3610:
  2076  07AD  2FAE               	goto	l4771
  2077                           	
  2078  07AE                     l1822:	
  2079                           	line	490
  2080                           	
  2081  07AE                     l4771:	
  2082                           ;main.c: 489: }
  2083                           ;main.c: 490: if (red_address_changed==0)
  2084  07AE  082B               	movf	((_red_address_changed+1)),w
  2085  07AF  042A               	iorwf	((_red_address_changed)),w
  2086  07B0  1D03               	skipz
  2087  07B1  2FB3               	goto	u3621
  2088  07B2  2FB4               	goto	u3620
  2089  07B3                     u3621:
  2090  07B3  2FCD               	goto	l4787
  2091  07B4                     u3620:
  2092                           	line	492
  2093                           	
  2094  07B4                     l4773:	
  2095                           ;main.c: 491: {
  2096                           ;main.c: 492: N_ADDR=0xD2;
  2097  07B4  30D2               	movlw	(0D2h)
  2098  07B5  00B9               	movwf	(??_main+0)+0
  2099  07B6  0839               	movf	(??_main+0)+0,w
  2100  07B7  00BB               	movwf	(_N_ADDR)
  2101                           	line	493
  2102                           	
  2103  07B8                     l4775:	
  2104                           ;main.c: 493: Nordic_Send(0x36, 0x10);
  2105  07B8  3010               	movlw	(010h)
  2106  07B9  00B9               	movwf	(??_main+0)+0
  2107  07BA  0839               	movf	(??_main+0)+0,w
  2108  07BB  00F7               	movwf	(?_Nordic_Send)
  2109  07BC  3036               	movlw	(036h)
  2110  07BD  2254               	fcall	_Nordic_Send
  2111                           	line	494
  2112                           	
  2113  07BE                     l4777:	
  2114                           ;main.c: 494: RC0=0;
  2115  07BE  1283               	bcf	status, 5	;RP0=0, select bank0
  2116  07BF  1007               	bcf	(56/8),(56)&7
  2117                           	line	496
  2118                           	
  2119  07C0                     l4779:	
  2120                           ;main.c: 496: delay_ms(100);
  2121  07C0  3064               	movlw	(064h)
  2122  07C1  21F6               	fcall	_delay_ms
  2123                           	line	497
  2124                           	
  2125  07C2                     l4781:	
  2126                           ;main.c: 497: delay_ms(100);
  2127  07C2  3064               	movlw	(064h)
  2128  07C3  21F6               	fcall	_delay_ms
  2129                           	line	498
  2130                           	
  2131  07C4                     l4783:	
  2132                           ;main.c: 498: delay_ms(100);
  2133  07C4  3064               	movlw	(064h)
  2134  07C5  21F6               	fcall	_delay_ms
  2135                           	line	501
  2136                           ;main.c: 501: N_ADDR=0xD2;
  2137  07C6  30D2               	movlw	(0D2h)
  2138  07C7  1283               	bcf	status, 5	;RP0=0, select bank0
  2139  07C8  00B9               	movwf	(??_main+0)+0
  2140  07C9  0839               	movf	(??_main+0)+0,w
  2141  07CA  00BB               	movwf	(_N_ADDR)
  2142                           	line	502
  2143                           	
  2144  07CB                     l4785:	
  2145                           ;main.c: 502: Nordic_Wakeup();
  2146  07CB  2366               	fcall	_Nordic_Wakeup
  2147  07CC  2FCD               	goto	l4787
  2148                           	line	505
  2149                           	
  2150  07CD                     l1827:	
  2151                           	line	506
  2152                           	
  2153  07CD                     l4787:	
  2154                           ;main.c: 505: }
  2155                           ;main.c: 506: if (blue_address_changed==0)
  2156  07CD  1283               	bcf	status, 5	;RP0=0, select bank0
  2157  07CE  0825               	movf	((_blue_address_changed+1)),w
  2158  07CF  0424               	iorwf	((_blue_address_changed)),w
  2159  07D0  1D03               	skipz
  2160  07D1  2FD3               	goto	u3631
  2161  07D2  2FD4               	goto	u3630
  2162  07D3                     u3631:
  2163  07D3  2FEE               	goto	l4803
  2164  07D4                     u3630:
  2165                           	line	508
  2166                           	
  2167  07D4                     l4789:	
  2168                           ;main.c: 507: {
  2169                           ;main.c: 508: N_ADDR=0x52;
  2170  07D4  3052               	movlw	(052h)
  2171  07D5  00B9               	movwf	(??_main+0)+0
  2172  07D6  0839               	movf	(??_main+0)+0,w
  2173  07D7  00BB               	movwf	(_N_ADDR)
  2174                           	line	509
  2175                           	
  2176  07D8                     l4791:	
  2177                           ;main.c: 509: Nordic_Send(0x36, 0x10);
  2178  07D8  3010               	movlw	(010h)
  2179  07D9  00B9               	movwf	(??_main+0)+0
  2180  07DA  0839               	movf	(??_main+0)+0,w
  2181  07DB  00F7               	movwf	(?_Nordic_Send)
  2182  07DC  3036               	movlw	(036h)
  2183  07DD  2254               	fcall	_Nordic_Send
  2184                           	line	510
  2185                           	
  2186  07DE                     l4793:	
  2187                           ;main.c: 510: RC0=0;
  2188  07DE  1283               	bcf	status, 5	;RP0=0, select bank0
  2189  07DF  1007               	bcf	(56/8),(56)&7
  2190                           	line	512
  2191                           	
  2192  07E0                     l4795:	
  2193                           ;main.c: 512: delay_ms(100);
  2194  07E0  3064               	movlw	(064h)
  2195  07E1  21F6               	fcall	_delay_ms
  2196                           	line	513
  2197                           	
  2198  07E2                     l4797:	
  2199                           ;main.c: 513: delay_ms(100);
  2200  07E2  3064               	movlw	(064h)
  2201  07E3  21F6               	fcall	_delay_ms
  2202                           	line	514
  2203                           	
  2204  07E4                     l4799:	
  2205                           ;main.c: 514: delay_ms(100);
  2206  07E4  3064               	movlw	(064h)
  2207  07E5  21F6               	fcall	_delay_ms
  2208                           	line	517
  2209                           ;main.c: 517: N_ADDR=0x52;
  2210  07E6  3052               	movlw	(052h)
  2211  07E7  1283               	bcf	status, 5	;RP0=0, select bank0
  2212  07E8  00B9               	movwf	(??_main+0)+0
  2213  07E9  0839               	movf	(??_main+0)+0,w
  2214  07EA  00BB               	movwf	(_N_ADDR)
  2215                           	line	518
  2216                           	
  2217  07EB                     l4801:	
  2218                           ;main.c: 518: Nordic_Wakeup2();
  2219  07EB  2466               	fcall	_Nordic_Wakeup2
  2220  07EC  2FEE               	goto	l4803
  2221                           	line	520
  2222                           	
  2223  07ED                     l1828:	
  2224  07ED  2FEE               	goto	l4803
  2225                           	line	521
  2226                           	
  2227  07EE                     l1818:	
  2228                           	line	538
  2229                           	
  2230  07EE                     l4803:	
  2231                           ;main.c: 520: }
  2232                           ;main.c: 521: }
  2233                           ;main.c: 538: timeout=0;
  2234  07EE  1283               	bcf	status, 5	;RP0=0, select bank0
  2235  07EF  01AC               	clrf	(_timeout)
  2236  07F0  01AD               	clrf	(_timeout+1)
  2237                           	line	539
  2238                           	
  2239  07F1                     l4805:	
  2240                           ;main.c: 539: i=0;
  2241  07F1  01A8               	clrf	(_i)
  2242  07F2  01A9               	clrf	(_i+1)
  2243                           	line	540
  2244                           	
  2245  07F3                     l4807:	
  2246                           ;main.c: 540: red_address_changed=0;
  2247  07F3  01AA               	clrf	(_red_address_changed)
  2248  07F4  01AB               	clrf	(_red_address_changed+1)
  2249                           	line	541
  2250                           	
  2251  07F5                     l4809:	
  2252                           ;main.c: 541: blue_address_changed=0;
  2253  07F5  01A4               	clrf	(_blue_address_changed)
  2254  07F6  01A5               	clrf	(_blue_address_changed+1)
  2255                           	line	542
  2256                           	
  2257  07F7                     l4811:	
  2258                           ;main.c: 542: RC4=0;RC5=0;
  2259  07F7  1207               	bcf	(60/8),(60)&7
  2260                           	
  2261  07F8                     l4813:	
  2262  07F8  1287               	bcf	(61/8),(61)&7
  2263                           	line	543
  2264                           	
  2265  07F9                     l4815:	
  2266                           ;main.c: 543: delay_ms(255);
  2267  07F9  30FF               	movlw	(0FFh)
  2268  07FA  21F6               	fcall	_delay_ms
  2269  07FB  2D90               	goto	l4601
  2270                           	line	544
  2271                           	
  2272  07FC                     l1798:	
  2273  07FC  2D90               	goto	l4601
  2274                           	line	545
  2275                           	
  2276  07FD                     l1797:	
  2277  07FD  2D90               	goto	l4601
  2278                           	line	546
  2279                           	
  2280  07FE                     l1829:	
  2281                           	line	342
  2282  07FE  2D90               	goto	l4601
  2283                           	
  2284  07FF                     l1830:	
  2285                           	line	547
  2286                           	
  2287  07FF                     l1831:	
  2288                           	global	start
  2289  07FF  2800               	ljmp	start
  2290                           	opt stack 0
  2291                           GLOBAL	__end_of_main
  2292  0800                     	__end_of_main:
  2293 ;; =============== function _main ends ============
  2294                           
  2295                           	signat	_main,88
  2296                           	global	_Nordic_Wakeup2
  2297                           psect	text311,local,class=CODE,delta=2
  2298                           global __ptext311
  2299  0466                     __ptext311:
  2300                           
  2301 ;; *************** function _Nordic_Wakeup2 *****************
  2302 ;; Defined at:
  2303 ;;		line 58 in file "C:\Projects\Nordic\dual wireless mic ref design\clean source code\RX\nordicmanager.c"
  2304 ;; Parameters:    Size  Location     Type
  2305 ;;		None
  2306 ;; Auto vars:     Size  Location     Type
  2307 ;;		None
  2308 ;; Return value:  Size  Location     Type
  2309 ;;		None               void
  2310 ;; Registers used:
  2311 ;;		wreg, status,2, status,0, btemp+1, pclath, cstack
  2312 ;; Tracked objects:
  2313 ;;		On entry : 0/0
  2314 ;;		On exit  : 0/0
  2315 ;;		Unchanged: 0/0
  2316 ;; Data sizes:     COMMON   BANK0   BANK1
  2317 ;;      Params:         0       0       0
  2318 ;;      Locals:         0       0       0
  2319 ;;      Temps:          0       4       0
  2320 ;;      Totals:         0       4       0
  2321 ;;Total ram usage:        4 bytes
  2322 ;; Hardware stack levels used:    1
  2323 ;; Hardware stack levels required when called:    4
  2324 ;; This function calls:
  2325 ;;		_delay_us
  2326 ;;		_EEpromRead
  2327 ;;		_Nordic_Readback
  2328 ;;		_delay_ms
  2329 ;; This function is called by:
  2330 ;;		_main
  2331 ;; This function uses a non-reentrant model
  2332 ;;
  2333                           psect	text311
  2334                           	file	"C:\Projects\Nordic\dual wireless mic ref design\clean source code\RX\nordicmanage
                                 r.c"
  2335                           	line	58
  2336                           	global	__size_of_Nordic_Wakeup2
  2337  0101                     	__size_of_Nordic_Wakeup2	equ	__end_of_Nordic_Wakeup2-_Nordic_Wakeup2
  2338                           	
  2339  0466                     _Nordic_Wakeup2:	
  2340                           	opt	stack 3
  2341                           ; Regs used in _Nordic_Wakeup2: [wreg+status,2+status,0+btemp+1+pclath+cstack]
  2342                           	line	60
  2343                           	
  2344  0466                     l4535:	
  2345                           ;nordicmanager.c: 60: delay_us(30);
  2346  0466  301E               	movlw	(01Eh)
  2347  0467  218E               	fcall	_delay_us
  2348                           	line	61
  2349                           	
  2350  0468                     l4537:	
  2351                           ;nordicmanager.c: 61: for(pointer =0; pointer<128; pointer++)
  2352  0468  3000               	movlw	0
  2353  0469  1283               	bcf	status, 5	;RP0=0, select bank0
  2354  046A  00A3               	movwf	(_pointer+3)
  2355  046B  3000               	movlw	0
  2356  046C  00A2               	movwf	(_pointer+2)
  2357  046D  3000               	movlw	0
  2358  046E  00A1               	movwf	(_pointer+1)
  2359  046F  3000               	movlw	0
  2360  0470  00A0               	movwf	(_pointer)
  2361                           
  2362                           	
  2363  0471                     l4539:	
  2364  0471  0823               	movf	(_pointer+3),w
  2365  0472  3A80               	xorlw	80h
  2366  0473  00FF               	movwf	btemp+1
  2367  0474  3000               	movlw	0
  2368  0475  3A80               	xorlw	80h
  2369  0476  027F               	subwf	btemp+1,w
  2370                           	
  2371  0477  1D03               	skipz
  2372  0478  2C83               	goto	u3243
  2373  0479  3000               	movlw	0
  2374  047A  0222               	subwf	(_pointer+2),w
  2375  047B  1D03               	skipz
  2376  047C  2C83               	goto	u3243
  2377  047D  3000               	movlw	0
  2378  047E  0221               	subwf	(_pointer+1),w
  2379  047F  1D03               	skipz
  2380  0480  2C83               	goto	u3243
  2381  0481  3080               	movlw	080h
  2382  0482  0220               	subwf	(_pointer),w
  2383  0483                     u3243:
  2384  0483  1C03               	skipc
  2385  0484  2C86               	goto	u3241
  2386  0485  2C87               	goto	u3240
  2387  0486                     u3241:
  2388  0486  2C89               	goto	l4543
  2389  0487                     u3240:
  2390  0487  2CFF               	goto	l4567
  2391                           	
  2392  0488                     l4541:	
  2393  0488  2CFF               	goto	l4567
  2394                           	line	62
  2395                           	
  2396  0489                     l1176:	
  2397                           	line	63
  2398                           	
  2399  0489                     l4543:	
  2400                           ;nordicmanager.c: 62: {
  2401                           ;nordicmanager.c: 63: delay_us(30);
  2402  0489  301E               	movlw	(01Eh)
  2403  048A  218E               	fcall	_delay_us
  2404                           	line	64
  2405                           	
  2406  048B                     l4545:	
  2407                           ;nordicmanager.c: 64: address = pointer;
  2408  048B  1283               	bcf	status, 5	;RP0=0, select bank0
  2409  048C  0820               	movf	(_pointer),w
  2410  048D  00B5               	movwf	(??_Nordic_Wakeup2+0)+0
  2411  048E  0835               	movf	(??_Nordic_Wakeup2+0)+0,w
  2412  048F  00AF               	movwf	(_address)
  2413                           	line	65
  2414                           	
  2415  0490                     l4547:	
  2416                           ;nordicmanager.c: 65: delay_us(30);
  2417  0490  301E               	movlw	(01Eh)
  2418  0491  218E               	fcall	_delay_us
  2419                           	line	66
  2420                           	
  2421  0492                     l4549:	
  2422                           ;nordicmanager.c: 66: data8=EEpromRead( address+128);
  2423  0492  1283               	bcf	status, 5	;RP0=0, select bank0
  2424  0493  082F               	movf	(_address),w
  2425  0494  3E80               	addlw	080h
  2426  0495  2175               	fcall	_EEpromRead
  2427  0496  1283               	bcf	status, 5	;RP0=0, select bank0
  2428  0497  00B5               	movwf	(??_Nordic_Wakeup2+0)+0
  2429  0498  0835               	movf	(??_Nordic_Wakeup2+0)+0,w
  2430  0499  00B0               	movwf	(_data8)
  2431                           	line	68
  2432                           	
  2433  049A                     l4551:	
  2434                           ;nordicmanager.c: 68: if(data8 != 0x00 )
  2435  049A  0830               	movf	(_data8),w
  2436  049B  1D03               	skipz
  2437  049C  2C9E               	goto	u3250
  2438  049D  2CD7               	goto	l1178
  2439  049E                     u3250:
  2440                           	line	70
  2441                           	
  2442  049E                     l4553:	
  2443                           ;nordicmanager.c: 69: {
  2444                           ;nordicmanager.c: 70: delay_us(30);
  2445  049E  301E               	movlw	(01Eh)
  2446  049F  218E               	fcall	_delay_us
  2447                           	line	71
  2448                           ;nordicmanager.c: 71: if ( !Nordic_Readback(address,data8) )
  2449  04A0  1283               	bcf	status, 5	;RP0=0, select bank0
  2450  04A1  0830               	movf	(_data8),w
  2451  04A2  00B5               	movwf	(??_Nordic_Wakeup2+0)+0
  2452  04A3  0835               	movf	(??_Nordic_Wakeup2+0)+0,w
  2453  04A4  00FC               	movwf	(?_Nordic_Readback)
  2454  04A5  082F               	movf	(_address),w
  2455  04A6  21CB               	fcall	_Nordic_Readback
  2456  04A7  3800               	iorlw	0
  2457  04A8  1D03               	skipz
  2458  04A9  2CAB               	goto	u3261
  2459  04AA  2CAC               	goto	u3260
  2460  04AB                     u3261:
  2461  04AB  2CD7               	goto	l1178
  2462  04AC                     u3260:
  2463                           	line	73
  2464                           	
  2465  04AC                     l4555:	
  2466                           ;nordicmanager.c: 72: {
  2467                           ;nordicmanager.c: 73: pointer = pointer -1;
  2468  04AC  30FF               	movlw	0FFh
  2469  04AD  1283               	bcf	status, 5	;RP0=0, select bank0
  2470  04AE  00B5               	movwf	((??_Nordic_Wakeup2+0)+0)
  2471  04AF  30FF               	movlw	0FFh
  2472  04B0  00B6               	movwf	((??_Nordic_Wakeup2+0)+0+1)
  2473  04B1  30FF               	movlw	0FFh
  2474  04B2  00B7               	movwf	((??_Nordic_Wakeup2+0)+0+2)
  2475  04B3  30FF               	movlw	0FFh
  2476  04B4  00B8               	movwf	((??_Nordic_Wakeup2+0)+0+3)
  2477  04B5  0820               	movf	(_pointer),w
  2478  04B6  07B5               	addwf	(??_Nordic_Wakeup2+0)+0,f
  2479  04B7  0821               	movf	(_pointer+1),w
  2480  04B8  1803               	skipnc
  2481  04B9  0F21               	incfsz	(_pointer+1),w
  2482  04BA  2CBC               	goto	u3270
  2483  04BB  2CBD               	goto	u3271
  2484  04BC                     u3270:
  2485  04BC  07B6               	addwf	(??_Nordic_Wakeup2+0)+1,f
  2486  04BD                     u3271:
  2487  04BD  0822               	movf	(_pointer+2),w
  2488  04BE  1803               	skipnc
  2489  04BF  0F22               	incfsz	(_pointer+2),w
  2490  04C0  2CC2               	goto	u3272
  2491  04C1  2CC3               	goto	u3273
  2492  04C2                     u3272:
  2493  04C2  07B7               	addwf	(??_Nordic_Wakeup2+0)+2,f
  2494  04C3                     u3273:
  2495  04C3  0823               	movf	(_pointer+3),w
  2496  04C4  1803               	skipnc
  2497  04C5  0A23               	incf	(_pointer+3),w
  2498  04C6  07B8               	addwf	(??_Nordic_Wakeup2+0)+3,f
  2499  04C7  0838               	movf	3+(??_Nordic_Wakeup2+0)+0,w
  2500  04C8  00A3               	movwf	(_pointer+3)
  2501  04C9  0837               	movf	2+(??_Nordic_Wakeup2+0)+0,w
  2502  04CA  00A2               	movwf	(_pointer+2)
  2503  04CB  0836               	movf	1+(??_Nordic_Wakeup2+0)+0,w
  2504  04CC  00A1               	movwf	(_pointer+1)
  2505  04CD  0835               	movf	0+(??_Nordic_Wakeup2+0)+0,w
  2506  04CE  00A0               	movwf	(_pointer)
  2507                           
  2508                           	line	74
  2509                           	
  2510  04CF                     l4557:	
  2511                           ;nordicmanager.c: 74: RA2=1;
  2512  04CF  1505               	bsf	(42/8),(42)&7
  2513                           	line	75
  2514                           	
  2515  04D0                     l4559:	
  2516                           ;nordicmanager.c: 75: delay_ms(500);
  2517  04D0  30F4               	movlw	(0F4h)
  2518  04D1  21F6               	fcall	_delay_ms
  2519                           	line	76
  2520                           	
  2521  04D2                     l4561:	
  2522                           ;nordicmanager.c: 76: RA2=0;
  2523  04D2  1283               	bcf	status, 5	;RP0=0, select bank0
  2524  04D3  1105               	bcf	(42/8),(42)&7
  2525                           	line	77
  2526                           	
  2527  04D4                     l4563:	
  2528                           ;nordicmanager.c: 77: delay_ms(500);
  2529  04D4  30F4               	movlw	(0F4h)
  2530  04D5  21F6               	fcall	_delay_ms
  2531  04D6  2CD7               	goto	l1178
  2532                           	line	78
  2533                           	
  2534  04D7                     l1179:	
  2535                           	line	79
  2536                           	
  2537  04D7                     l1178:	
  2538                           	line	61
  2539  04D7  3001               	movlw	01h
  2540  04D8  1283               	bcf	status, 5	;RP0=0, select bank0
  2541  04D9  07A0               	addwf	(_pointer),f
  2542  04DA  3000               	movlw	0
  2543  04DB  1803               	skipnc
  2544  04DC  3001               movlw 1
  2545  04DD  07A1               	addwf	(_pointer+1),f
  2546  04DE  3000               	movlw	0
  2547  04DF  1803               	skipnc
  2548  04E0  3001               movlw 1
  2549  04E1  07A2               	addwf	(_pointer+2),f
  2550  04E2  3000               	movlw	0
  2551  04E3  1803               	skipnc
  2552  04E4  3001               movlw 1
  2553  04E5  07A3               	addwf	(_pointer+3),f
  2554                           	
  2555  04E6                     l4565:	
  2556  04E6  0823               	movf	(_pointer+3),w
  2557  04E7  3A80               	xorlw	80h
  2558  04E8  00FF               	movwf	btemp+1
  2559  04E9  3000               	movlw	0
  2560  04EA  3A80               	xorlw	80h
  2561  04EB  027F               	subwf	btemp+1,w
  2562                           	
  2563  04EC  1D03               	skipz
  2564  04ED  2CF8               	goto	u3283
  2565  04EE  3000               	movlw	0
  2566  04EF  0222               	subwf	(_pointer+2),w
  2567  04F0  1D03               	skipz
  2568  04F1  2CF8               	goto	u3283
  2569  04F2  3000               	movlw	0
  2570  04F3  0221               	subwf	(_pointer+1),w
  2571  04F4  1D03               	skipz
  2572  04F5  2CF8               	goto	u3283
  2573  04F6  3080               	movlw	080h
  2574  04F7  0220               	subwf	(_pointer),w
  2575  04F8                     u3283:
  2576  04F8  1C03               	skipc
  2577  04F9  2CFB               	goto	u3281
  2578  04FA  2CFC               	goto	u3280
  2579  04FB                     u3281:
  2580  04FB  2C89               	goto	l4543
  2581  04FC                     u3280:
  2582  04FC  2CFF               	goto	l4567
  2583                           	
  2584  04FD                     l1177:	
  2585                           	line	81
  2586                           ;nordicmanager.c: 78: }
  2587                           ;nordicmanager.c: 79: }
  2588                           ;nordicmanager.c: 80: }
  2589                           ;nordicmanager.c: 81: while ( !Nordic_Readback(0x44,0x02) );
  2590  04FD  2CFF               	goto	l4567
  2591                           	
  2592  04FE                     l1181:	
  2593  04FE  2CFF               	goto	l4567
  2594                           	
  2595  04FF                     l1180:	
  2596                           	
  2597  04FF                     l4567:	
  2598  04FF  3002               	movlw	(02h)
  2599  0500  1283               	bcf	status, 5	;RP0=0, select bank0
  2600  0501  00B5               	movwf	(??_Nordic_Wakeup2+0)+0
  2601  0502  0835               	movf	(??_Nordic_Wakeup2+0)+0,w
  2602  0503  00FC               	movwf	(?_Nordic_Readback)
  2603  0504  3044               	movlw	(044h)
  2604  0505  21CB               	fcall	_Nordic_Readback
  2605  0506  3A00               	xorlw	0
  2606  0507  1903               	skipnz
  2607  0508  2D0A               	goto	u3291
  2608  0509  2D0B               	goto	u3290
  2609  050A                     u3291:
  2610  050A  2CFF               	goto	l4567
  2611  050B                     u3290:
  2612  050B  2D0E               	goto	l4569
  2613                           	
  2614  050C                     l1182:	
  2615                           	line	82
  2616                           ;nordicmanager.c: 82: while ( !Nordic_Readback(0x49,0x03) );
  2617  050C  2D0E               	goto	l4569
  2618                           	
  2619  050D                     l1184:	
  2620  050D  2D0E               	goto	l4569
  2621                           	
  2622  050E                     l1183:	
  2623                           	
  2624  050E                     l4569:	
  2625  050E  3003               	movlw	(03h)
  2626  050F  1283               	bcf	status, 5	;RP0=0, select bank0
  2627  0510  00B5               	movwf	(??_Nordic_Wakeup2+0)+0
  2628  0511  0835               	movf	(??_Nordic_Wakeup2+0)+0,w
  2629  0512  00FC               	movwf	(?_Nordic_Readback)
  2630  0513  3049               	movlw	(049h)
  2631  0514  21CB               	fcall	_Nordic_Readback
  2632  0515  3A00               	xorlw	0
  2633  0516  1903               	skipnz
  2634  0517  2D19               	goto	u3301
  2635  0518  2D1A               	goto	u3300
  2636  0519                     u3301:
  2637  0519  2D0E               	goto	l4569
  2638  051A                     u3300:
  2639  051A  2D1D               	goto	l4571
  2640                           	
  2641  051B                     l1185:	
  2642                           	line	83
  2643                           ;nordicmanager.c: 83: while ( !Nordic_Readback(0x50,0x02) );
  2644  051B  2D1D               	goto	l4571
  2645                           	
  2646  051C                     l1187:	
  2647  051C  2D1D               	goto	l4571
  2648                           	
  2649  051D                     l1186:	
  2650                           	
  2651  051D                     l4571:	
  2652  051D  3002               	movlw	(02h)
  2653  051E  1283               	bcf	status, 5	;RP0=0, select bank0
  2654  051F  00B5               	movwf	(??_Nordic_Wakeup2+0)+0
  2655  0520  0835               	movf	(??_Nordic_Wakeup2+0)+0,w
  2656  0521  00FC               	movwf	(?_Nordic_Readback)
  2657  0522  3050               	movlw	(050h)
  2658  0523  21CB               	fcall	_Nordic_Readback
  2659  0524  3A00               	xorlw	0
  2660  0525  1903               	skipnz
  2661  0526  2D28               	goto	u3311
  2662  0527  2D29               	goto	u3310
  2663  0528                     u3311:
  2664  0528  2D1D               	goto	l4571
  2665  0529                     u3310:
  2666  0529  2D2C               	goto	l4573
  2667                           	
  2668  052A                     l1188:	
  2669                           	line	84
  2670                           ;nordicmanager.c: 84: while ( !Nordic_Readback(0x53,0x02) );
  2671  052A  2D2C               	goto	l4573
  2672                           	
  2673  052B                     l1190:	
  2674  052B  2D2C               	goto	l4573
  2675                           	
  2676  052C                     l1189:	
  2677                           	
  2678  052C                     l4573:	
  2679  052C  3002               	movlw	(02h)
  2680  052D  1283               	bcf	status, 5	;RP0=0, select bank0
  2681  052E  00B5               	movwf	(??_Nordic_Wakeup2+0)+0
  2682  052F  0835               	movf	(??_Nordic_Wakeup2+0)+0,w
  2683  0530  00FC               	movwf	(?_Nordic_Readback)
  2684  0531  3053               	movlw	(053h)
  2685  0532  21CB               	fcall	_Nordic_Readback
  2686  0533  3A00               	xorlw	0
  2687  0534  1903               	skipnz
  2688  0535  2D37               	goto	u3321
  2689  0536  2D38               	goto	u3320
  2690  0537                     u3321:
  2691  0537  2D2C               	goto	l4573
  2692  0538                     u3320:
  2693  0538  2D3B               	goto	l4575
  2694                           	
  2695  0539                     l1191:	
  2696                           	line	85
  2697                           ;nordicmanager.c: 85: while ( !Nordic_Readback(0x56,0x03) );
  2698  0539  2D3B               	goto	l4575
  2699                           	
  2700  053A                     l1193:	
  2701  053A  2D3B               	goto	l4575
  2702                           	
  2703  053B                     l1192:	
  2704                           	
  2705  053B                     l4575:	
  2706  053B  3003               	movlw	(03h)
  2707  053C  1283               	bcf	status, 5	;RP0=0, select bank0
  2708  053D  00B5               	movwf	(??_Nordic_Wakeup2+0)+0
  2709  053E  0835               	movf	(??_Nordic_Wakeup2+0)+0,w
  2710  053F  00FC               	movwf	(?_Nordic_Readback)
  2711  0540  3056               	movlw	(056h)
  2712  0541  21CB               	fcall	_Nordic_Readback
  2713  0542  3A00               	xorlw	0
  2714  0543  1903               	skipnz
  2715  0544  2D46               	goto	u3331
  2716  0545  2D47               	goto	u3330
  2717  0546                     u3331:
  2718  0546  2D3B               	goto	l4575
  2719  0547                     u3330:
  2720  0547  2D4A               	goto	l4577
  2721                           	
  2722  0548                     l1194:	
  2723                           	line	86
  2724                           ;nordicmanager.c: 86: while ( !Nordic_Readback(0x4A,0x20) );
  2725  0548  2D4A               	goto	l4577
  2726                           	
  2727  0549                     l1196:	
  2728  0549  2D4A               	goto	l4577
  2729                           	
  2730  054A                     l1195:	
  2731                           	
  2732  054A                     l4577:	
  2733  054A  3020               	movlw	(020h)
  2734  054B  1283               	bcf	status, 5	;RP0=0, select bank0
  2735  054C  00B5               	movwf	(??_Nordic_Wakeup2+0)+0
  2736  054D  0835               	movf	(??_Nordic_Wakeup2+0)+0,w
  2737  054E  00FC               	movwf	(?_Nordic_Readback)
  2738  054F  304A               	movlw	(04Ah)
  2739  0550  21CB               	fcall	_Nordic_Readback
  2740  0551  3A00               	xorlw	0
  2741  0552  1903               	skipnz
  2742  0553  2D55               	goto	u3341
  2743  0554  2D56               	goto	u3340
  2744  0555                     u3341:
  2745  0555  2D4A               	goto	l4577
  2746  0556                     u3340:
  2747  0556  2D59               	goto	l4579
  2748                           	
  2749  0557                     l1197:	
  2750                           	line	87
  2751                           ;nordicmanager.c: 87: while ( !Nordic_Readback(0x5A,0x83) );
  2752  0557  2D59               	goto	l4579
  2753                           	
  2754  0558                     l1199:	
  2755  0558  2D59               	goto	l4579
  2756                           	
  2757  0559                     l1198:	
  2758                           	
  2759  0559                     l4579:	
  2760  0559  3083               	movlw	(083h)
  2761  055A  1283               	bcf	status, 5	;RP0=0, select bank0
  2762  055B  00B5               	movwf	(??_Nordic_Wakeup2+0)+0
  2763  055C  0835               	movf	(??_Nordic_Wakeup2+0)+0,w
  2764  055D  00FC               	movwf	(?_Nordic_Readback)
  2765  055E  305A               	movlw	(05Ah)
  2766  055F  21CB               	fcall	_Nordic_Readback
  2767  0560  3A00               	xorlw	0
  2768  0561  1903               	skipnz
  2769  0562  2D64               	goto	u3351
  2770  0563  2D65               	goto	u3350
  2771  0564                     u3351:
  2772  0564  2D59               	goto	l4579
  2773  0565                     u3350:
  2774  0565  2D66               	goto	l1201
  2775                           	
  2776  0566                     l1200:	
  2777                           	line	89
  2778                           	
  2779  0566                     l1201:	
  2780  0566  0008               	return
  2781                           	opt stack 0
  2782                           GLOBAL	__end_of_Nordic_Wakeup2
  2783  0567                     	__end_of_Nordic_Wakeup2:
  2784 ;; =============== function _Nordic_Wakeup2 ends ============
  2785                           
  2786                           	signat	_Nordic_Wakeup2,88
  2787                           	global	_Nordic_Wakeup
  2788                           psect	text312,local,class=CODE,delta=2
  2789                           global __ptext312
  2790  0366                     __ptext312:
  2791                           
  2792 ;; *************** function _Nordic_Wakeup *****************
  2793 ;; Defined at:
  2794 ;;		line 24 in file "C:\Projects\Nordic\dual wireless mic ref design\clean source code\RX\nordicmanager.c"
  2795 ;; Parameters:    Size  Location     Type
  2796 ;;		None
  2797 ;; Auto vars:     Size  Location     Type
  2798 ;;		None
  2799 ;; Return value:  Size  Location     Type
  2800 ;;		None               void
  2801 ;; Registers used:
  2802 ;;		wreg, status,2, status,0, btemp+1, pclath, cstack
  2803 ;; Tracked objects:
  2804 ;;		On entry : 0/0
  2805 ;;		On exit  : 0/0
  2806 ;;		Unchanged: 0/0
  2807 ;; Data sizes:     COMMON   BANK0   BANK1
  2808 ;;      Params:         0       0       0
  2809 ;;      Locals:         0       0       0
  2810 ;;      Temps:          0       4       0
  2811 ;;      Totals:         0       4       0
  2812 ;;Total ram usage:        4 bytes
  2813 ;; Hardware stack levels used:    1
  2814 ;; Hardware stack levels required when called:    4
  2815 ;; This function calls:
  2816 ;;		_delay_us
  2817 ;;		_EEpromRead
  2818 ;;		_Nordic_Readback
  2819 ;;		_delay_ms
  2820 ;; This function is called by:
  2821 ;;		_main
  2822 ;; This function uses a non-reentrant model
  2823 ;;
  2824                           psect	text312
  2825                           	file	"C:\Projects\Nordic\dual wireless mic ref design\clean source code\RX\nordicmanage
                                 r.c"
  2826                           	line	24
  2827                           	global	__size_of_Nordic_Wakeup
  2828  0100                     	__size_of_Nordic_Wakeup	equ	__end_of_Nordic_Wakeup-_Nordic_Wakeup
  2829                           	
  2830  0366                     _Nordic_Wakeup:	
  2831                           	opt	stack 3
  2832                           ; Regs used in _Nordic_Wakeup: [wreg+status,2+status,0+btemp+1+pclath+cstack]
  2833                           	line	26
  2834                           	
  2835  0366                     l4489:	
  2836                           ;nordicmanager.c: 26: delay_us(30);
  2837  0366  301E               	movlw	(01Eh)
  2838  0367  218E               	fcall	_delay_us
  2839                           	line	27
  2840                           	
  2841  0368                     l4491:	
  2842                           ;nordicmanager.c: 27: for(pointer =0; pointer<128; pointer++)
  2843  0368  3000               	movlw	0
  2844  0369  1283               	bcf	status, 5	;RP0=0, select bank0
  2845  036A  00A3               	movwf	(_pointer+3)
  2846  036B  3000               	movlw	0
  2847  036C  00A2               	movwf	(_pointer+2)
  2848  036D  3000               	movlw	0
  2849  036E  00A1               	movwf	(_pointer+1)
  2850  036F  3000               	movlw	0
  2851  0370  00A0               	movwf	(_pointer)
  2852                           
  2853                           	
  2854  0371                     l4493:	
  2855  0371  0823               	movf	(_pointer+3),w
  2856  0372  3A80               	xorlw	80h
  2857  0373  00FF               	movwf	btemp+1
  2858  0374  3000               	movlw	0
  2859  0375  3A80               	xorlw	80h
  2860  0376  027F               	subwf	btemp+1,w
  2861                           	
  2862  0377  1D03               	skipz
  2863  0378  2B83               	goto	u3123
  2864  0379  3000               	movlw	0
  2865  037A  0222               	subwf	(_pointer+2),w
  2866  037B  1D03               	skipz
  2867  037C  2B83               	goto	u3123
  2868  037D  3000               	movlw	0
  2869  037E  0221               	subwf	(_pointer+1),w
  2870  037F  1D03               	skipz
  2871  0380  2B83               	goto	u3123
  2872  0381  3080               	movlw	080h
  2873  0382  0220               	subwf	(_pointer),w
  2874  0383                     u3123:
  2875  0383  1C03               	skipc
  2876  0384  2B86               	goto	u3121
  2877  0385  2B87               	goto	u3120
  2878  0386                     u3121:
  2879  0386  2B89               	goto	l4497
  2880  0387                     u3120:
  2881  0387  2BFE               	goto	l4521
  2882                           	
  2883  0388                     l4495:	
  2884  0388  2BFE               	goto	l4521
  2885                           	line	28
  2886                           	
  2887  0389                     l1148:	
  2888                           	line	29
  2889                           	
  2890  0389                     l4497:	
  2891                           ;nordicmanager.c: 28: {
  2892                           ;nordicmanager.c: 29: delay_us(30);
  2893  0389  301E               	movlw	(01Eh)
  2894  038A  218E               	fcall	_delay_us
  2895                           	line	30
  2896                           	
  2897  038B                     l4499:	
  2898                           ;nordicmanager.c: 30: address = pointer;
  2899  038B  1283               	bcf	status, 5	;RP0=0, select bank0
  2900  038C  0820               	movf	(_pointer),w
  2901  038D  00B5               	movwf	(??_Nordic_Wakeup+0)+0
  2902  038E  0835               	movf	(??_Nordic_Wakeup+0)+0,w
  2903  038F  00AF               	movwf	(_address)
  2904                           	line	31
  2905                           	
  2906  0390                     l4501:	
  2907                           ;nordicmanager.c: 31: delay_us(30);
  2908  0390  301E               	movlw	(01Eh)
  2909  0391  218E               	fcall	_delay_us
  2910                           	line	32
  2911                           	
  2912  0392                     l4503:	
  2913                           ;nordicmanager.c: 32: data8=EEpromRead( address);
  2914  0392  1283               	bcf	status, 5	;RP0=0, select bank0
  2915  0393  082F               	movf	(_address),w
  2916  0394  2175               	fcall	_EEpromRead
  2917  0395  1283               	bcf	status, 5	;RP0=0, select bank0
  2918  0396  00B5               	movwf	(??_Nordic_Wakeup+0)+0
  2919  0397  0835               	movf	(??_Nordic_Wakeup+0)+0,w
  2920  0398  00B0               	movwf	(_data8)
  2921                           	line	34
  2922                           	
  2923  0399                     l4505:	
  2924                           ;nordicmanager.c: 34: if(data8 != 0x00 )
  2925  0399  0830               	movf	(_data8),w
  2926  039A  1D03               	skipz
  2927  039B  2B9D               	goto	u3130
  2928  039C  2BD6               	goto	l1150
  2929  039D                     u3130:
  2930                           	line	36
  2931                           	
  2932  039D                     l4507:	
  2933                           ;nordicmanager.c: 35: {
  2934                           ;nordicmanager.c: 36: delay_us(30);
  2935  039D  301E               	movlw	(01Eh)
  2936  039E  218E               	fcall	_delay_us
  2937                           	line	37
  2938                           ;nordicmanager.c: 37: if ( !Nordic_Readback(address,data8) )
  2939  039F  1283               	bcf	status, 5	;RP0=0, select bank0
  2940  03A0  0830               	movf	(_data8),w
  2941  03A1  00B5               	movwf	(??_Nordic_Wakeup+0)+0
  2942  03A2  0835               	movf	(??_Nordic_Wakeup+0)+0,w
  2943  03A3  00FC               	movwf	(?_Nordic_Readback)
  2944  03A4  082F               	movf	(_address),w
  2945  03A5  21CB               	fcall	_Nordic_Readback
  2946  03A6  3800               	iorlw	0
  2947  03A7  1D03               	skipz
  2948  03A8  2BAA               	goto	u3141
  2949  03A9  2BAB               	goto	u3140
  2950  03AA                     u3141:
  2951  03AA  2BD6               	goto	l1150
  2952  03AB                     u3140:
  2953                           	line	39
  2954                           	
  2955  03AB                     l4509:	
  2956                           ;nordicmanager.c: 38: {
  2957                           ;nordicmanager.c: 39: pointer = pointer -1;
  2958  03AB  30FF               	movlw	0FFh
  2959  03AC  1283               	bcf	status, 5	;RP0=0, select bank0
  2960  03AD  00B5               	movwf	((??_Nordic_Wakeup+0)+0)
  2961  03AE  30FF               	movlw	0FFh
  2962  03AF  00B6               	movwf	((??_Nordic_Wakeup+0)+0+1)
  2963  03B0  30FF               	movlw	0FFh
  2964  03B1  00B7               	movwf	((??_Nordic_Wakeup+0)+0+2)
  2965  03B2  30FF               	movlw	0FFh
  2966  03B3  00B8               	movwf	((??_Nordic_Wakeup+0)+0+3)
  2967  03B4  0820               	movf	(_pointer),w
  2968  03B5  07B5               	addwf	(??_Nordic_Wakeup+0)+0,f
  2969  03B6  0821               	movf	(_pointer+1),w
  2970  03B7  1803               	skipnc
  2971  03B8  0F21               	incfsz	(_pointer+1),w
  2972  03B9  2BBB               	goto	u3150
  2973  03BA  2BBC               	goto	u3151
  2974  03BB                     u3150:
  2975  03BB  07B6               	addwf	(??_Nordic_Wakeup+0)+1,f
  2976  03BC                     u3151:
  2977  03BC  0822               	movf	(_pointer+2),w
  2978  03BD  1803               	skipnc
  2979  03BE  0F22               	incfsz	(_pointer+2),w
  2980  03BF  2BC1               	goto	u3152
  2981  03C0  2BC2               	goto	u3153
  2982  03C1                     u3152:
  2983  03C1  07B7               	addwf	(??_Nordic_Wakeup+0)+2,f
  2984  03C2                     u3153:
  2985  03C2  0823               	movf	(_pointer+3),w
  2986  03C3  1803               	skipnc
  2987  03C4  0A23               	incf	(_pointer+3),w
  2988  03C5  07B8               	addwf	(??_Nordic_Wakeup+0)+3,f
  2989  03C6  0838               	movf	3+(??_Nordic_Wakeup+0)+0,w
  2990  03C7  00A3               	movwf	(_pointer+3)
  2991  03C8  0837               	movf	2+(??_Nordic_Wakeup+0)+0,w
  2992  03C9  00A2               	movwf	(_pointer+2)
  2993  03CA  0836               	movf	1+(??_Nordic_Wakeup+0)+0,w
  2994  03CB  00A1               	movwf	(_pointer+1)
  2995  03CC  0835               	movf	0+(??_Nordic_Wakeup+0)+0,w
  2996  03CD  00A0               	movwf	(_pointer)
  2997                           
  2998                           	line	40
  2999                           	
  3000  03CE                     l4511:	
  3001                           ;nordicmanager.c: 40: RA4=1;
  3002  03CE  1605               	bsf	(44/8),(44)&7
  3003                           	line	41
  3004                           	
  3005  03CF                     l4513:	
  3006                           ;nordicmanager.c: 41: delay_ms(500);
  3007  03CF  30F4               	movlw	(0F4h)
  3008  03D0  21F6               	fcall	_delay_ms
  3009                           	line	42
  3010                           	
  3011  03D1                     l4515:	
  3012                           ;nordicmanager.c: 42: RA4=0;
  3013  03D1  1283               	bcf	status, 5	;RP0=0, select bank0
  3014  03D2  1205               	bcf	(44/8),(44)&7
  3015                           	line	43
  3016                           	
  3017  03D3                     l4517:	
  3018                           ;nordicmanager.c: 43: delay_ms(500);
  3019  03D3  30F4               	movlw	(0F4h)
  3020  03D4  21F6               	fcall	_delay_ms
  3021  03D5  2BD6               	goto	l1150
  3022                           	line	45
  3023                           	
  3024  03D6                     l1151:	
  3025                           	line	46
  3026                           	
  3027  03D6                     l1150:	
  3028                           	line	27
  3029  03D6  3001               	movlw	01h
  3030  03D7  1283               	bcf	status, 5	;RP0=0, select bank0
  3031  03D8  07A0               	addwf	(_pointer),f
  3032  03D9  3000               	movlw	0
  3033  03DA  1803               	skipnc
  3034  03DB  3001               movlw 1
  3035  03DC  07A1               	addwf	(_pointer+1),f
  3036  03DD  3000               	movlw	0
  3037  03DE  1803               	skipnc
  3038  03DF  3001               movlw 1
  3039  03E0  07A2               	addwf	(_pointer+2),f
  3040  03E1  3000               	movlw	0
  3041  03E2  1803               	skipnc
  3042  03E3  3001               movlw 1
  3043  03E4  07A3               	addwf	(_pointer+3),f
  3044                           	
  3045  03E5                     l4519:	
  3046  03E5  0823               	movf	(_pointer+3),w
  3047  03E6  3A80               	xorlw	80h
  3048  03E7  00FF               	movwf	btemp+1
  3049  03E8  3000               	movlw	0
  3050  03E9  3A80               	xorlw	80h
  3051  03EA  027F               	subwf	btemp+1,w
  3052                           	
  3053  03EB  1D03               	skipz
  3054  03EC  2BF7               	goto	u3163
  3055  03ED  3000               	movlw	0
  3056  03EE  0222               	subwf	(_pointer+2),w
  3057  03EF  1D03               	skipz
  3058  03F0  2BF7               	goto	u3163
  3059  03F1  3000               	movlw	0
  3060  03F2  0221               	subwf	(_pointer+1),w
  3061  03F3  1D03               	skipz
  3062  03F4  2BF7               	goto	u3163
  3063  03F5  3080               	movlw	080h
  3064  03F6  0220               	subwf	(_pointer),w
  3065  03F7                     u3163:
  3066  03F7  1C03               	skipc
  3067  03F8  2BFA               	goto	u3161
  3068  03F9  2BFB               	goto	u3160
  3069  03FA                     u3161:
  3070  03FA  2B89               	goto	l4497
  3071  03FB                     u3160:
  3072  03FB  2BFE               	goto	l4521
  3073                           	
  3074  03FC                     l1149:	
  3075                           	line	48
  3076                           ;nordicmanager.c: 45: }
  3077                           ;nordicmanager.c: 46: }
  3078                           ;nordicmanager.c: 47: }
  3079                           ;nordicmanager.c: 48: while ( !Nordic_Readback(0x44,0x02) );
  3080  03FC  2BFE               	goto	l4521
  3081                           	
  3082  03FD                     l1153:	
  3083  03FD  2BFE               	goto	l4521
  3084                           	
  3085  03FE                     l1152:	
  3086                           	
  3087  03FE                     l4521:	
  3088  03FE  3002               	movlw	(02h)
  3089  03FF  1283               	bcf	status, 5	;RP0=0, select bank0
  3090  0400  00B5               	movwf	(??_Nordic_Wakeup+0)+0
  3091  0401  0835               	movf	(??_Nordic_Wakeup+0)+0,w
  3092  0402  00FC               	movwf	(?_Nordic_Readback)
  3093  0403  3044               	movlw	(044h)
  3094  0404  21CB               	fcall	_Nordic_Readback
  3095  0405  3A00               	xorlw	0
  3096  0406  1903               	skipnz
  3097  0407  2C09               	goto	u3171
  3098  0408  2C0A               	goto	u3170
  3099  0409                     u3171:
  3100  0409  2BFE               	goto	l4521
  3101  040A                     u3170:
  3102  040A  2C0D               	goto	l4523
  3103                           	
  3104  040B                     l1154:	
  3105                           	line	49
  3106                           ;nordicmanager.c: 49: while ( !Nordic_Readback(0x49,0x03) );
  3107  040B  2C0D               	goto	l4523
  3108                           	
  3109  040C                     l1156:	
  3110  040C  2C0D               	goto	l4523
  3111                           	
  3112  040D                     l1155:	
  3113                           	
  3114  040D                     l4523:	
  3115  040D  3003               	movlw	(03h)
  3116  040E  1283               	bcf	status, 5	;RP0=0, select bank0
  3117  040F  00B5               	movwf	(??_Nordic_Wakeup+0)+0
  3118  0410  0835               	movf	(??_Nordic_Wakeup+0)+0,w
  3119  0411  00FC               	movwf	(?_Nordic_Readback)
  3120  0412  3049               	movlw	(049h)
  3121  0413  21CB               	fcall	_Nordic_Readback
  3122  0414  3A00               	xorlw	0
  3123  0415  1903               	skipnz
  3124  0416  2C18               	goto	u3181
  3125  0417  2C19               	goto	u3180
  3126  0418                     u3181:
  3127  0418  2C0D               	goto	l4523
  3128  0419                     u3180:
  3129  0419  2C1C               	goto	l4525
  3130                           	
  3131  041A                     l1157:	
  3132                           	line	50
  3133                           ;nordicmanager.c: 50: while ( !Nordic_Readback(0x50,0x02) );
  3134  041A  2C1C               	goto	l4525
  3135                           	
  3136  041B                     l1159:	
  3137  041B  2C1C               	goto	l4525
  3138                           	
  3139  041C                     l1158:	
  3140                           	
  3141  041C                     l4525:	
  3142  041C  3002               	movlw	(02h)
  3143  041D  1283               	bcf	status, 5	;RP0=0, select bank0
  3144  041E  00B5               	movwf	(??_Nordic_Wakeup+0)+0
  3145  041F  0835               	movf	(??_Nordic_Wakeup+0)+0,w
  3146  0420  00FC               	movwf	(?_Nordic_Readback)
  3147  0421  3050               	movlw	(050h)
  3148  0422  21CB               	fcall	_Nordic_Readback
  3149  0423  3A00               	xorlw	0
  3150  0424  1903               	skipnz
  3151  0425  2C27               	goto	u3191
  3152  0426  2C28               	goto	u3190
  3153  0427                     u3191:
  3154  0427  2C1C               	goto	l4525
  3155  0428                     u3190:
  3156  0428  2C2B               	goto	l4527
  3157                           	
  3158  0429                     l1160:	
  3159                           	line	51
  3160                           ;nordicmanager.c: 51: while ( !Nordic_Readback(0x53,0x02) );
  3161  0429  2C2B               	goto	l4527
  3162                           	
  3163  042A                     l1162:	
  3164  042A  2C2B               	goto	l4527
  3165                           	
  3166  042B                     l1161:	
  3167                           	
  3168  042B                     l4527:	
  3169  042B  3002               	movlw	(02h)
  3170  042C  1283               	bcf	status, 5	;RP0=0, select bank0
  3171  042D  00B5               	movwf	(??_Nordic_Wakeup+0)+0
  3172  042E  0835               	movf	(??_Nordic_Wakeup+0)+0,w
  3173  042F  00FC               	movwf	(?_Nordic_Readback)
  3174  0430  3053               	movlw	(053h)
  3175  0431  21CB               	fcall	_Nordic_Readback
  3176  0432  3A00               	xorlw	0
  3177  0433  1903               	skipnz
  3178  0434  2C36               	goto	u3201
  3179  0435  2C37               	goto	u3200
  3180  0436                     u3201:
  3181  0436  2C2B               	goto	l4527
  3182  0437                     u3200:
  3183  0437  2C3A               	goto	l4529
  3184                           	
  3185  0438                     l1163:	
  3186                           	line	52
  3187                           ;nordicmanager.c: 52: while ( !Nordic_Readback(0x56,0x03) );
  3188  0438  2C3A               	goto	l4529
  3189                           	
  3190  0439                     l1165:	
  3191  0439  2C3A               	goto	l4529
  3192                           	
  3193  043A                     l1164:	
  3194                           	
  3195  043A                     l4529:	
  3196  043A  3003               	movlw	(03h)
  3197  043B  1283               	bcf	status, 5	;RP0=0, select bank0
  3198  043C  00B5               	movwf	(??_Nordic_Wakeup+0)+0
  3199  043D  0835               	movf	(??_Nordic_Wakeup+0)+0,w
  3200  043E  00FC               	movwf	(?_Nordic_Readback)
  3201  043F  3056               	movlw	(056h)
  3202  0440  21CB               	fcall	_Nordic_Readback
  3203  0441  3A00               	xorlw	0
  3204  0442  1903               	skipnz
  3205  0443  2C45               	goto	u3211
  3206  0444  2C46               	goto	u3210
  3207  0445                     u3211:
  3208  0445  2C3A               	goto	l4529
  3209  0446                     u3210:
  3210  0446  2C49               	goto	l4531
  3211                           	
  3212  0447                     l1166:	
  3213                           	line	53
  3214                           ;nordicmanager.c: 53: while ( !Nordic_Readback(0x4A,0x20) );
  3215  0447  2C49               	goto	l4531
  3216                           	
  3217  0448                     l1168:	
  3218  0448  2C49               	goto	l4531
  3219                           	
  3220  0449                     l1167:	
  3221                           	
  3222  0449                     l4531:	
  3223  0449  3020               	movlw	(020h)
  3224  044A  1283               	bcf	status, 5	;RP0=0, select bank0
  3225  044B  00B5               	movwf	(??_Nordic_Wakeup+0)+0
  3226  044C  0835               	movf	(??_Nordic_Wakeup+0)+0,w
  3227  044D  00FC               	movwf	(?_Nordic_Readback)
  3228  044E  304A               	movlw	(04Ah)
  3229  044F  21CB               	fcall	_Nordic_Readback
  3230  0450  3A00               	xorlw	0
  3231  0451  1903               	skipnz
  3232  0452  2C54               	goto	u3221
  3233  0453  2C55               	goto	u3220
  3234  0454                     u3221:
  3235  0454  2C49               	goto	l4531
  3236  0455                     u3220:
  3237  0455  2C58               	goto	l4533
  3238                           	
  3239  0456                     l1169:	
  3240                           	line	54
  3241                           ;nordicmanager.c: 54: while ( !Nordic_Readback(0x5A,0x83) );
  3242  0456  2C58               	goto	l4533
  3243                           	
  3244  0457                     l1171:	
  3245  0457  2C58               	goto	l4533
  3246                           	
  3247  0458                     l1170:	
  3248                           	
  3249  0458                     l4533:	
  3250  0458  3083               	movlw	(083h)
  3251  0459  1283               	bcf	status, 5	;RP0=0, select bank0
  3252  045A  00B5               	movwf	(??_Nordic_Wakeup+0)+0
  3253  045B  0835               	movf	(??_Nordic_Wakeup+0)+0,w
  3254  045C  00FC               	movwf	(?_Nordic_Readback)
  3255  045D  305A               	movlw	(05Ah)
  3256  045E  21CB               	fcall	_Nordic_Readback
  3257  045F  3A00               	xorlw	0
  3258  0460  1903               	skipnz
  3259  0461  2C63               	goto	u3231
  3260  0462  2C64               	goto	u3230
  3261  0463                     u3231:
  3262  0463  2C58               	goto	l4533
  3263  0464                     u3230:
  3264  0464  2C65               	goto	l1173
  3265                           	
  3266  0465                     l1172:	
  3267                           	line	55
  3268                           	
  3269  0465                     l1173:	
  3270  0465  0008               	return
  3271                           	opt stack 0
  3272                           GLOBAL	__end_of_Nordic_Wakeup
  3273  0466                     	__end_of_Nordic_Wakeup:
  3274 ;; =============== function _Nordic_Wakeup ends ============
  3275                           
  3276                           	signat	_Nordic_Wakeup,88
  3277                           	global	_Nordic_Readback
  3278                           psect	text313,local,class=CODE,delta=2
  3279                           global __ptext313
  3280  01CB                     __ptext313:
  3281                           
  3282 ;; *************** function _Nordic_Readback *****************
  3283 ;; Defined at:
  3284 ;;		line 263 in file "C:\Projects\Nordic\dual wireless mic ref design\clean source code\RX\Nordic_i2c.c"
  3285 ;; Parameters:    Size  Location     Type
  3286 ;;  address         1    wreg     unsigned char 
  3287 ;;  data8           1   12[COMMON] unsigned char 
  3288 ;; Auto vars:     Size  Location     Type
  3289 ;;  address         1    3[BANK0 ] unsigned char 
  3290 ;;  temp            1    2[BANK0 ] unsigned char 
  3291 ;;  rdata           1    1[BANK0 ] unsigned char 
  3292 ;;  raddress        1    0[BANK0 ] unsigned char 
  3293 ;; Return value:  Size  Location     Type
  3294 ;;                  1    wreg      unsigned char 
  3295 ;; Registers used:
  3296 ;;		wreg, status,2, status,0, pclath, cstack
  3297 ;; Tracked objects:
  3298 ;;		On entry : 0/0
  3299 ;;		On exit  : 0/0
  3300 ;;		Unchanged: 0/0
  3301 ;; Data sizes:     COMMON   BANK0   BANK1
  3302 ;;      Params:         1       0       0
  3303 ;;      Locals:         0       4       0
  3304 ;;      Temps:          1       0       0
  3305 ;;      Totals:         2       4       0
  3306 ;;Total ram usage:        6 bytes
  3307 ;; Hardware stack levels used:    1
  3308 ;; Hardware stack levels required when called:    3
  3309 ;; This function calls:
  3310 ;;		_Nordic_Send
  3311 ;;		_Nordic_Read
  3312 ;; This function is called by:
  3313 ;;		_Nordic_Wakeup
  3314 ;;		_Nordic_Wakeup2
  3315 ;;		_main
  3316 ;; This function uses a non-reentrant model
  3317 ;;
  3318                           psect	text313
  3319                           	file	"C:\Projects\Nordic\dual wireless mic ref design\clean source code\RX\Nordic_i2c.c
                                 "
  3320                           	line	263
  3321                           	global	__size_of_Nordic_Readback
  3322  002B                     	__size_of_Nordic_Readback	equ	__end_of_Nordic_Readback-_Nordic_Readback
  3323                           	
  3324  01CB                     _Nordic_Readback:	
  3325                           	opt	stack 4
  3326                           ; Regs used in _Nordic_Readback: [wreg+status,2+status,0+pclath+cstack]
  3327                           ;Nordic_Readback@address stored from wreg
  3328                           	line	265
  3329  01CB  1283               	bcf	status, 5	;RP0=0, select bank0
  3330  01CC  00B4               	movwf	(Nordic_Readback@address)
  3331                           	
  3332  01CD                     l4477:	
  3333                           ;Nordic_i2c.c: 264: BYTE raddress,rdata;
  3334                           ;Nordic_i2c.c: 265: BYTE temp=250;
  3335  01CD  30FA               	movlw	(0FAh)
  3336  01CE  00FD               	movwf	(??_Nordic_Readback+0)+0
  3337  01CF  087D               	movf	(??_Nordic_Readback+0)+0,w
  3338  01D0  00B3               	movwf	(Nordic_Readback@temp)
  3339                           	line	266
  3340                           ;Nordic_i2c.c: 266: raddress=address;
  3341  01D1  0834               	movf	(Nordic_Readback@address),w
  3342  01D2  00FD               	movwf	(??_Nordic_Readback+0)+0
  3343  01D3  087D               	movf	(??_Nordic_Readback+0)+0,w
  3344  01D4  00B1               	movwf	(Nordic_Readback@raddress)
  3345                           	line	267
  3346                           ;Nordic_i2c.c: 267: rdata=data8;
  3347  01D5  087C               	movf	(Nordic_Readback@data8),w
  3348  01D6  00FD               	movwf	(??_Nordic_Readback+0)+0
  3349  01D7  087D               	movf	(??_Nordic_Readback+0)+0,w
  3350  01D8  00B2               	movwf	(Nordic_Readback@rdata)
  3351                           	line	268
  3352                           	
  3353  01D9                     l4479:	
  3354                           ;Nordic_i2c.c: 268: Nordic_Send(address,data8);
  3355  01D9  087C               	movf	(Nordic_Readback@data8),w
  3356  01DA  00FD               	movwf	(??_Nordic_Readback+0)+0
  3357  01DB  087D               	movf	(??_Nordic_Readback+0)+0,w
  3358  01DC  00F7               	movwf	(?_Nordic_Send)
  3359  01DD  0834               	movf	(Nordic_Readback@address),w
  3360  01DE  2254               	fcall	_Nordic_Send
  3361                           	line	269
  3362                           ;Nordic_i2c.c: 269: while ( --temp );
  3363  01DF  29E1               	goto	l4481
  3364                           	
  3365  01E0                     l581:	
  3366  01E0  29E1               	goto	l4481
  3367                           	
  3368  01E1                     l580:	
  3369                           	
  3370  01E1                     l4481:	
  3371  01E1  3001               	movlw	low(01h)
  3372  01E2  1283               	bcf	status, 5	;RP0=0, select bank0
  3373  01E3  02B3               	subwf	(Nordic_Readback@temp),f
  3374  01E4  1D03               	btfss	status,2
  3375  01E5  29E7               	goto	u3111
  3376  01E6  29E8               	goto	u3110
  3377  01E7                     u3111:
  3378  01E7  29E1               	goto	l4481
  3379  01E8                     u3110:
  3380  01E8  29E9               	goto	l4483
  3381                           	
  3382  01E9                     l582:	
  3383                           	line	270
  3384                           	
  3385  01E9                     l4483:	
  3386                           ;Nordic_i2c.c: 270: data8= Nordic_Read(address);
  3387  01E9  0834               	movf	(Nordic_Readback@address),w
  3388  01EA  22B1               	fcall	_Nordic_Read
  3389  01EB  00FD               	movwf	(??_Nordic_Readback+0)+0
  3390  01EC  087D               	movf	(??_Nordic_Readback+0)+0,w
  3391  01ED  00FC               	movwf	(Nordic_Readback@data8)
  3392                           	line	271
  3393                           	
  3394  01EE                     l4485:	
  3395                           ;Nordic_i2c.c: 271: return (rdata==data8 );
  3396  01EE  1283               	bcf	status, 5	;RP0=0, select bank0
  3397  01EF  0832               	movf	(Nordic_Readback@rdata),w
  3398  01F0  067C               	xorwf	(Nordic_Readback@data8),w
  3399  01F1  3000               	movlw	0
  3400  01F2  1903               	skipnz
  3401  01F3  3001               	movlw	1
  3402  01F4  29F5               	goto	l583
  3403                           	
  3404  01F5                     l4487:	
  3405                           	line	273
  3406                           	
  3407  01F5                     l583:	
  3408  01F5  0008               	return
  3409                           	opt stack 0
  3410                           GLOBAL	__end_of_Nordic_Readback
  3411  01F6                     	__end_of_Nordic_Readback:
  3412 ;; =============== function _Nordic_Readback ends ============
  3413                           
  3414                           	signat	_Nordic_Readback,8313
  3415                           	global	_Nordic_Read
  3416                           psect	text314,local,class=CODE,delta=2
  3417                           global __ptext314
  3418  02B1                     __ptext314:
  3419                           
  3420 ;; *************** function _Nordic_Read *****************
  3421 ;; Defined at:
  3422 ;;		line 130 in file "C:\Projects\Nordic\dual wireless mic ref design\clean source code\RX\Nordic_i2c.c"
  3423 ;; Parameters:    Size  Location     Type
  3424 ;;  raddress        1    wreg     unsigned char 
  3425 ;; Auto vars:     Size  Location     Type
  3426 ;;  raddress        1    9[COMMON] unsigned char 
  3427 ;;  temp            1   11[COMMON] unsigned char 
  3428 ;;  t               1   10[COMMON] unsigned char 
  3429 ;; Return value:  Size  Location     Type
  3430 ;;                  1    wreg      unsigned char 
  3431 ;; Registers used:
  3432 ;;		wreg, status,2, status,0, pclath, cstack
  3433 ;; Tracked objects:
  3434 ;;		On entry : 0/0
  3435 ;;		On exit  : 0/0
  3436 ;;		Unchanged: 0/0
  3437 ;; Data sizes:     COMMON   BANK0   BANK1
  3438 ;;      Params:         0       0       0
  3439 ;;      Locals:         3       0       0
  3440 ;;      Temps:          2       0       0
  3441 ;;      Totals:         5       0       0
  3442 ;;Total ram usage:        5 bytes
  3443 ;; Hardware stack levels used:    1
  3444 ;; Hardware stack levels required when called:    2
  3445 ;; This function calls:
  3446 ;;		_delay_us
  3447 ;;		_ClockEight
  3448 ;; This function is called by:
  3449 ;;		_Nordic_Readback
  3450 ;;		_main
  3451 ;; This function uses a non-reentrant model
  3452 ;;
  3453                           psect	text314
  3454                           	file	"C:\Projects\Nordic\dual wireless mic ref design\clean source code\RX\Nordic_i2c.c
                                 "
  3455                           	line	130
  3456                           	global	__size_of_Nordic_Read
  3457  00B5                     	__size_of_Nordic_Read	equ	__end_of_Nordic_Read-_Nordic_Read
  3458                           	
  3459  02B1                     _Nordic_Read:	
  3460                           	opt	stack 4
  3461                           ; Regs used in _Nordic_Read: [wreg+status,2+status,0+pclath+cstack]
  3462                           ;Nordic_Read@raddress stored from wreg
  3463                           	line	132
  3464  02B1  00F9               	movwf	(Nordic_Read@raddress)
  3465                           	
  3466  02B2                     l4365:	
  3467                           ;Nordic_i2c.c: 131: BYTE t; BYTE temp;
  3468                           ;Nordic_i2c.c: 132: TransmissionError=0;
  3469  02B2  1283               	bcf	status, 5	;RP0=0, select bank0
  3470  02B3  01AE               	clrf	(_TransmissionError)
  3471                           	line	135
  3472                           ;Nordic_i2c.c: 135: (RC3=1);
  3473  02B4  1587               	bsf	(59/8),(59)&7
  3474                           	line	136
  3475                           ;Nordic_i2c.c: 136: (RC2=1);
  3476  02B5  1507               	bsf	(58/8),(58)&7
  3477                           	line	137
  3478                           	
  3479  02B6                     l4367:	
  3480                           ;Nordic_i2c.c: 137: delay_us(100);
  3481  02B6  3064               	movlw	(064h)
  3482  02B7  218E               	fcall	_delay_us
  3483                           	line	138
  3484                           	
  3485  02B8                     l4369:	
  3486                           ;Nordic_i2c.c: 138: (RC2=0);
  3487  02B8  1283               	bcf	status, 5	;RP0=0, select bank0
  3488  02B9  1107               	bcf	(58/8),(58)&7
  3489                           	line	139
  3490                           ;Nordic_i2c.c: 139: delay_us(100);
  3491  02BA  3064               	movlw	(064h)
  3492  02BB  218E               	fcall	_delay_us
  3493                           	line	140
  3494                           	
  3495  02BC                     l4371:	
  3496                           ;Nordic_i2c.c: 140: (RC3=0);
  3497  02BC  1283               	bcf	status, 5	;RP0=0, select bank0
  3498  02BD  1187               	bcf	(59/8),(59)&7
  3499                           	line	141
  3500                           ;Nordic_i2c.c: 141: delay_us(100);
  3501  02BE  3064               	movlw	(064h)
  3502  02BF  218E               	fcall	_delay_us
  3503                           	line	143
  3504                           	
  3505  02C0                     l4373:	
  3506                           ;Nordic_i2c.c: 143: temp = N_ADDR;
  3507  02C0  1283               	bcf	status, 5	;RP0=0, select bank0
  3508  02C1  083B               	movf	(_N_ADDR),w
  3509  02C2  00F7               	movwf	(??_Nordic_Read+0)+0
  3510  02C3  0877               	movf	(??_Nordic_Read+0)+0,w
  3511  02C4  00FB               	movwf	(Nordic_Read@temp)
  3512                           	line	144
  3513                           	
  3514  02C5                     l4375:	
  3515                           ;Nordic_i2c.c: 144: ClockEight( temp);
  3516  02C5  087B               	movf	(Nordic_Read@temp),w
  3517  02C6  2224               	fcall	_ClockEight
  3518                           	line	150
  3519                           	
  3520  02C7                     l4377:	
  3521                           ;Nordic_i2c.c: 150: TRISC|=0x04;;
  3522  02C7  1683               	bsf	status, 5	;RP0=1, select bank1
  3523  02C8  1507               	bsf	(135)^080h+(2/8),(2)&7	;volatile
  3524                           	line	152
  3525                           	
  3526  02C9                     l4379:	
  3527                           ;Nordic_i2c.c: 152: (RC3=1);
  3528  02C9  1283               	bcf	status, 5	;RP0=0, select bank0
  3529  02CA  1587               	bsf	(59/8),(59)&7
  3530                           	line	153
  3531                           	
  3532  02CB                     l4381:	
  3533                           ;Nordic_i2c.c: 153: delay_us(100);
  3534  02CB  3064               	movlw	(064h)
  3535  02CC  218E               	fcall	_delay_us
  3536                           	line	154
  3537                           	
  3538  02CD                     l4383:	
  3539                           ;Nordic_i2c.c: 154: if(RC2)
  3540  02CD  1283               	bcf	status, 5	;RP0=0, select bank0
  3541  02CE  1D07               	btfss	(58/8),(58)&7
  3542  02CF  2AD1               	goto	u3031
  3543  02D0  2AD2               	goto	u3030
  3544  02D1                     u3031:
  3545  02D1  2AD3               	goto	l567
  3546  02D2                     u3030:
  3547                           	line	156
  3548                           	
  3549  02D2                     l4385:	
  3550                           ;Nordic_i2c.c: 155: {
  3551                           ;Nordic_i2c.c: 156: TransmissionError |= 1;
  3552  02D2  142E               	bsf	(_TransmissionError)+(0/8),(0)&7
  3553                           	line	157
  3554                           	
  3555  02D3                     l567:	
  3556                           	line	158
  3557                           ;Nordic_i2c.c: 157: }
  3558                           ;Nordic_i2c.c: 158: (RC3=0);
  3559  02D3  1187               	bcf	(59/8),(59)&7
  3560                           	line	164
  3561                           	
  3562  02D4                     l4387:	
  3563                           ;Nordic_i2c.c: 164: TRISC&=0xFB;;
  3564  02D4  30FB               	movlw	(0FBh)
  3565  02D5  00F7               	movwf	(??_Nordic_Read+0)+0
  3566  02D6  0877               	movf	(??_Nordic_Read+0)+0,w
  3567  02D7  1683               	bsf	status, 5	;RP0=1, select bank1
  3568  02D8  0587               	andwf	(135)^080h,f	;volatile
  3569                           	line	167
  3570                           	
  3571  02D9                     l4389:	
  3572                           ;Nordic_i2c.c: 167: delay_us(100);
  3573  02D9  3064               	movlw	(064h)
  3574  02DA  218E               	fcall	_delay_us
  3575                           	line	168
  3576                           	
  3577  02DB                     l4391:	
  3578                           ;Nordic_i2c.c: 168: ClockEight( raddress);
  3579  02DB  0879               	movf	(Nordic_Read@raddress),w
  3580  02DC  2224               	fcall	_ClockEight
  3581                           	line	175
  3582                           	
  3583  02DD                     l4393:	
  3584                           ;Nordic_i2c.c: 175: TRISC|=0x04;;
  3585  02DD  1683               	bsf	status, 5	;RP0=1, select bank1
  3586  02DE  1507               	bsf	(135)^080h+(2/8),(2)&7	;volatile
  3587                           	line	177
  3588                           	
  3589  02DF                     l4395:	
  3590                           ;Nordic_i2c.c: 177: (RC3=1);
  3591  02DF  1283               	bcf	status, 5	;RP0=0, select bank0
  3592  02E0  1587               	bsf	(59/8),(59)&7
  3593                           	line	178
  3594                           	
  3595  02E1                     l4397:	
  3596                           ;Nordic_i2c.c: 178: delay_us(100);
  3597  02E1  3064               	movlw	(064h)
  3598  02E2  218E               	fcall	_delay_us
  3599                           	line	179
  3600                           	
  3601  02E3                     l4399:	
  3602                           ;Nordic_i2c.c: 179: if(RC2)
  3603  02E3  1283               	bcf	status, 5	;RP0=0, select bank0
  3604  02E4  1D07               	btfss	(58/8),(58)&7
  3605  02E5  2AE7               	goto	u3041
  3606  02E6  2AE8               	goto	u3040
  3607  02E7                     u3041:
  3608  02E7  2AE9               	goto	l568
  3609  02E8                     u3040:
  3610                           	line	182
  3611                           	
  3612  02E8                     l4401:	
  3613                           ;Nordic_i2c.c: 180: {
  3614                           ;Nordic_i2c.c: 182: TransmissionError |= 1;
  3615  02E8  142E               	bsf	(_TransmissionError)+(0/8),(0)&7
  3616                           	line	184
  3617                           	
  3618  02E9                     l568:	
  3619                           	line	186
  3620                           ;Nordic_i2c.c: 184: }
  3621                           ;Nordic_i2c.c: 186: (RC3=0);
  3622  02E9  1187               	bcf	(59/8),(59)&7
  3623                           	line	188
  3624                           	
  3625  02EA                     l4403:	
  3626                           ;Nordic_i2c.c: 188: TRISC&=0xFB;;
  3627  02EA  30FB               	movlw	(0FBh)
  3628  02EB  00F7               	movwf	(??_Nordic_Read+0)+0
  3629  02EC  0877               	movf	(??_Nordic_Read+0)+0,w
  3630  02ED  1683               	bsf	status, 5	;RP0=1, select bank1
  3631  02EE  0587               	andwf	(135)^080h,f	;volatile
  3632                           	line	191
  3633                           	
  3634  02EF                     l4405:	
  3635                           ;Nordic_i2c.c: 191: (RC2=1);
  3636  02EF  1283               	bcf	status, 5	;RP0=0, select bank0
  3637  02F0  1507               	bsf	(58/8),(58)&7
  3638                           	line	193
  3639                           	
  3640  02F1                     l4407:	
  3641                           ;Nordic_i2c.c: 193: delay_us(100);
  3642  02F1  3064               	movlw	(064h)
  3643  02F2  218E               	fcall	_delay_us
  3644                           	line	194
  3645                           	
  3646  02F3                     l4409:	
  3647                           ;Nordic_i2c.c: 194: (RC3=1);
  3648  02F3  1283               	bcf	status, 5	;RP0=0, select bank0
  3649  02F4  1587               	bsf	(59/8),(59)&7
  3650                           	line	195
  3651                           	
  3652  02F5                     l4411:	
  3653                           ;Nordic_i2c.c: 195: delay_us(100);
  3654  02F5  3064               	movlw	(064h)
  3655  02F6  218E               	fcall	_delay_us
  3656                           	line	196
  3657                           	
  3658  02F7                     l4413:	
  3659                           ;Nordic_i2c.c: 196: (RC2=0);
  3660  02F7  1283               	bcf	status, 5	;RP0=0, select bank0
  3661  02F8  1107               	bcf	(58/8),(58)&7
  3662                           	line	197
  3663                           	
  3664  02F9                     l4415:	
  3665                           ;Nordic_i2c.c: 197: delay_us(100);
  3666  02F9  3064               	movlw	(064h)
  3667  02FA  218E               	fcall	_delay_us
  3668                           	line	198
  3669                           	
  3670  02FB                     l4417:	
  3671                           ;Nordic_i2c.c: 198: (RC3=0);
  3672  02FB  1283               	bcf	status, 5	;RP0=0, select bank0
  3673  02FC  1187               	bcf	(59/8),(59)&7
  3674                           	line	199
  3675                           	
  3676  02FD                     l4419:	
  3677                           ;Nordic_i2c.c: 199: delay_us(100);
  3678  02FD  3064               	movlw	(064h)
  3679  02FE  218E               	fcall	_delay_us
  3680                           	line	201
  3681                           ;Nordic_i2c.c: 201: temp = N_ADDR+1;
  3682  02FF  1283               	bcf	status, 5	;RP0=0, select bank0
  3683  0300  083B               	movf	(_N_ADDR),w
  3684  0301  3E01               	addlw	01h
  3685  0302  00F7               	movwf	(??_Nordic_Read+0)+0
  3686  0303  0877               	movf	(??_Nordic_Read+0)+0,w
  3687  0304  00FB               	movwf	(Nordic_Read@temp)
  3688                           	line	202
  3689                           	
  3690  0305                     l4421:	
  3691                           ;Nordic_i2c.c: 202: ClockEight( temp);
  3692  0305  087B               	movf	(Nordic_Read@temp),w
  3693  0306  2224               	fcall	_ClockEight
  3694                           	line	205
  3695                           	
  3696  0307                     l4423:	
  3697                           ;Nordic_i2c.c: 205: TRISC|=0x04;;
  3698  0307  1683               	bsf	status, 5	;RP0=1, select bank1
  3699  0308  1507               	bsf	(135)^080h+(2/8),(2)&7	;volatile
  3700                           	line	207
  3701                           	
  3702  0309                     l4425:	
  3703                           ;Nordic_i2c.c: 207: (RC3=1);
  3704  0309  1283               	bcf	status, 5	;RP0=0, select bank0
  3705  030A  1587               	bsf	(59/8),(59)&7
  3706                           	line	208
  3707                           	
  3708  030B                     l4427:	
  3709                           ;Nordic_i2c.c: 208: delay_us(100);
  3710  030B  3064               	movlw	(064h)
  3711  030C  218E               	fcall	_delay_us
  3712                           	line	209
  3713                           	
  3714  030D                     l4429:	
  3715                           ;Nordic_i2c.c: 209: if(RC2)
  3716  030D  1283               	bcf	status, 5	;RP0=0, select bank0
  3717  030E  1D07               	btfss	(58/8),(58)&7
  3718  030F  2B11               	goto	u3051
  3719  0310  2B12               	goto	u3050
  3720  0311                     u3051:
  3721  0311  2B13               	goto	l569
  3722  0312                     u3050:
  3723                           	line	211
  3724                           	
  3725  0312                     l4431:	
  3726                           ;Nordic_i2c.c: 210: {
  3727                           ;Nordic_i2c.c: 211: TransmissionError |= 1;
  3728  0312  142E               	bsf	(_TransmissionError)+(0/8),(0)&7
  3729                           	line	214
  3730                           	
  3731  0313                     l569:	
  3732                           	line	215
  3733                           ;Nordic_i2c.c: 214: }
  3734                           ;Nordic_i2c.c: 215: (RC3=0);
  3735  0313  1187               	bcf	(59/8),(59)&7
  3736                           	line	219
  3737                           	
  3738  0314                     l4433:	
  3739                           ;Nordic_i2c.c: 219: temp=30;
  3740  0314  301E               	movlw	(01Eh)
  3741  0315  00F7               	movwf	(??_Nordic_Read+0)+0
  3742  0316  0877               	movf	(??_Nordic_Read+0)+0,w
  3743  0317  00FB               	movwf	(Nordic_Read@temp)
  3744                           	line	220
  3745                           ;Nordic_i2c.c: 220: while ( --temp ) ;
  3746  0318  2B1A               	goto	l4435
  3747                           	
  3748  0319                     l571:	
  3749  0319  2B1A               	goto	l4435
  3750                           	
  3751  031A                     l570:	
  3752                           	
  3753  031A                     l4435:	
  3754  031A  3001               	movlw	low(01h)
  3755  031B  02FB               	subwf	(Nordic_Read@temp),f
  3756  031C  1D03               	btfss	status,2
  3757  031D  2B1F               	goto	u3061
  3758  031E  2B20               	goto	u3060
  3759  031F                     u3061:
  3760  031F  2B1A               	goto	l4435
  3761  0320                     u3060:
  3762                           	
  3763  0320                     l572:	
  3764                           	line	222
  3765                           ;Nordic_i2c.c: 222: temp = 0;
  3766  0320  01FB               	clrf	(Nordic_Read@temp)
  3767                           	line	224
  3768                           ;Nordic_i2c.c: 224: for(t=0;t<8;t++)
  3769  0321  01FA               	clrf	(Nordic_Read@t)
  3770                           	
  3771  0322                     l4437:	
  3772  0322  3008               	movlw	(08h)
  3773  0323  027A               	subwf	(Nordic_Read@t),w
  3774  0324  1C03               	skipc
  3775  0325  2B27               	goto	u3071
  3776  0326  2B28               	goto	u3070
  3777  0327                     u3071:
  3778  0327  2B2A               	goto	l4441
  3779  0328                     u3070:
  3780  0328  2B4C               	goto	l574
  3781                           	
  3782  0329                     l4439:	
  3783  0329  2B4C               	goto	l574
  3784                           	line	225
  3785                           	
  3786  032A                     l573:	
  3787                           	line	226
  3788                           	
  3789  032A                     l4441:	
  3790                           ;Nordic_i2c.c: 225: {
  3791                           ;Nordic_i2c.c: 226: temp = temp<<1;
  3792  032A  087B               	movf	(Nordic_Read@temp),w
  3793  032B  00F7               	movwf	(??_Nordic_Read+0)+0
  3794  032C  0777               	addwf	(??_Nordic_Read+0)+0,w
  3795  032D  00F8               	movwf	(??_Nordic_Read+1)+0
  3796  032E  0878               	movf	(??_Nordic_Read+1)+0,w
  3797  032F  00FB               	movwf	(Nordic_Read@temp)
  3798                           	line	227
  3799                           	
  3800  0330                     l4443:	
  3801                           ;Nordic_i2c.c: 227: delay_us(100);
  3802  0330  3064               	movlw	(064h)
  3803  0331  218E               	fcall	_delay_us
  3804                           	line	228
  3805                           	
  3806  0332                     l4445:	
  3807                           ;Nordic_i2c.c: 228: (RC3=1);
  3808  0332  1283               	bcf	status, 5	;RP0=0, select bank0
  3809  0333  1587               	bsf	(59/8),(59)&7
  3810                           	line	229
  3811                           	
  3812  0334                     l4447:	
  3813                           ;Nordic_i2c.c: 229: delay_us(100);
  3814  0334  3064               	movlw	(064h)
  3815  0335  218E               	fcall	_delay_us
  3816                           	line	230
  3817                           	
  3818  0336                     l4449:	
  3819                           ;Nordic_i2c.c: 230: if(RC2)
  3820  0336  1283               	bcf	status, 5	;RP0=0, select bank0
  3821  0337  1D07               	btfss	(58/8),(58)&7
  3822  0338  2B3A               	goto	u3081
  3823  0339  2B3B               	goto	u3080
  3824  033A                     u3081:
  3825  033A  2B41               	goto	l4453
  3826  033B                     u3080:
  3827                           	line	231
  3828                           	
  3829  033B                     l4451:	
  3830                           ;Nordic_i2c.c: 231: temp=temp+1;
  3831  033B  087B               	movf	(Nordic_Read@temp),w
  3832  033C  3E01               	addlw	01h
  3833  033D  00F7               	movwf	(??_Nordic_Read+0)+0
  3834  033E  0877               	movf	(??_Nordic_Read+0)+0,w
  3835  033F  00FB               	movwf	(Nordic_Read@temp)
  3836  0340  2B41               	goto	l4453
  3837                           	
  3838  0341                     l575:	
  3839                           	line	232
  3840                           	
  3841  0341                     l4453:	
  3842                           ;Nordic_i2c.c: 232: (RC3=0);
  3843  0341  1187               	bcf	(59/8),(59)&7
  3844                           	line	224
  3845  0342  3001               	movlw	(01h)
  3846  0343  00F7               	movwf	(??_Nordic_Read+0)+0
  3847  0344  0877               	movf	(??_Nordic_Read+0)+0,w
  3848  0345  07FA               	addwf	(Nordic_Read@t),f
  3849                           	
  3850  0346                     l4455:	
  3851  0346  3008               	movlw	(08h)
  3852  0347  027A               	subwf	(Nordic_Read@t),w
  3853  0348  1C03               	skipc
  3854  0349  2B4B               	goto	u3091
  3855  034A  2B4C               	goto	u3090
  3856  034B                     u3091:
  3857  034B  2B2A               	goto	l4441
  3858  034C                     u3090:
  3859                           	
  3860  034C                     l574:	
  3861                           	line	238
  3862                           ;Nordic_i2c.c: 233: }
  3863                           ;Nordic_i2c.c: 238: (RC3=1);
  3864  034C  1283               	bcf	status, 5	;RP0=0, select bank0
  3865  034D  1587               	bsf	(59/8),(59)&7
  3866                           	line	239
  3867                           	
  3868  034E                     l4457:	
  3869                           ;Nordic_i2c.c: 239: delay_us(100);
  3870  034E  3064               	movlw	(064h)
  3871  034F  218E               	fcall	_delay_us
  3872                           	line	240
  3873                           	
  3874  0350                     l4459:	
  3875                           ;Nordic_i2c.c: 240: if(!RC2)
  3876  0350  1283               	bcf	status, 5	;RP0=0, select bank0
  3877  0351  1907               	btfsc	(58/8),(58)&7
  3878  0352  2B54               	goto	u3101
  3879  0353  2B55               	goto	u3100
  3880  0354                     u3101:
  3881  0354  2B56               	goto	l576
  3882  0355                     u3100:
  3883                           	line	242
  3884                           	
  3885  0355                     l4461:	
  3886                           ;Nordic_i2c.c: 241: {
  3887                           ;Nordic_i2c.c: 242: TransmissionError |= 1;
  3888  0355  142E               	bsf	(_TransmissionError)+(0/8),(0)&7
  3889                           	line	244
  3890                           	
  3891  0356                     l576:	
  3892                           	line	245
  3893                           ;Nordic_i2c.c: 244: }
  3894                           ;Nordic_i2c.c: 245: (RC3=0);
  3895  0356  1187               	bcf	(59/8),(59)&7
  3896                           	line	253
  3897                           	
  3898  0357                     l4463:	
  3899                           ;Nordic_i2c.c: 253: TRISC&=0xFB;;
  3900  0357  30FB               	movlw	(0FBh)
  3901  0358  00F7               	movwf	(??_Nordic_Read+0)+0
  3902  0359  0877               	movf	(??_Nordic_Read+0)+0,w
  3903  035A  1683               	bsf	status, 5	;RP0=1, select bank1
  3904  035B  0587               	andwf	(135)^080h,f	;volatile
  3905                           	line	255
  3906                           	
  3907  035C                     l4465:	
  3908                           ;Nordic_i2c.c: 255: (RC2=0);
  3909  035C  1283               	bcf	status, 5	;RP0=0, select bank0
  3910  035D  1107               	bcf	(58/8),(58)&7
  3911                           	line	256
  3912                           	
  3913  035E                     l4467:	
  3914                           ;Nordic_i2c.c: 256: (RC3=1);
  3915  035E  1587               	bsf	(59/8),(59)&7
  3916                           	line	257
  3917                           	
  3918  035F                     l4469:	
  3919                           ;Nordic_i2c.c: 257: delay_us(100);
  3920  035F  3064               	movlw	(064h)
  3921  0360  218E               	fcall	_delay_us
  3922                           	line	258
  3923                           	
  3924  0361                     l4471:	
  3925                           ;Nordic_i2c.c: 258: (RC2=1);
  3926  0361  1283               	bcf	status, 5	;RP0=0, select bank0
  3927  0362  1507               	bsf	(58/8),(58)&7
  3928                           	line	259
  3929                           	
  3930  0363                     l4473:	
  3931                           ;Nordic_i2c.c: 259: return(temp);
  3932  0363  087B               	movf	(Nordic_Read@temp),w
  3933  0364  2B65               	goto	l577
  3934                           	
  3935  0365                     l4475:	
  3936                           	line	260
  3937                           	
  3938  0365                     l577:	
  3939  0365  0008               	return
  3940                           	opt stack 0
  3941                           GLOBAL	__end_of_Nordic_Read
  3942  0366                     	__end_of_Nordic_Read:
  3943 ;; =============== function _Nordic_Read ends ============
  3944                           
  3945                           	signat	_Nordic_Read,4217
  3946                           	global	_Nordic_Send
  3947                           psect	text315,local,class=CODE,delta=2
  3948                           global __ptext315
  3949  0254                     __ptext315:
  3950                           
  3951 ;; *************** function _Nordic_Send *****************
  3952 ;; Defined at:
  3953 ;;		line 42 in file "C:\Projects\Nordic\dual wireless mic ref design\clean source code\RX\Nordic_i2c.c"
  3954 ;; Parameters:    Size  Location     Type
  3955 ;;  address         1    wreg     unsigned char 
  3956 ;;  data8           1    7[COMMON] unsigned char 
  3957 ;; Auto vars:     Size  Location     Type
  3958 ;;  address         1    9[COMMON] unsigned char 
  3959 ;;  temp            1   10[COMMON] unsigned char 
  3960 ;; Return value:  Size  Location     Type
  3961 ;;		None               void
  3962 ;; Registers used:
  3963 ;;		wreg, status,2, status,0, pclath, cstack
  3964 ;; Tracked objects:
  3965 ;;		On entry : 0/0
  3966 ;;		On exit  : 0/0
  3967 ;;		Unchanged: 0/0
  3968 ;; Data sizes:     COMMON   BANK0   BANK1
  3969 ;;      Params:         1       0       0
  3970 ;;      Locals:         2       0       0
  3971 ;;      Temps:          1       0       0
  3972 ;;      Totals:         4       0       0
  3973 ;;Total ram usage:        4 bytes
  3974 ;; Hardware stack levels used:    1
  3975 ;; Hardware stack levels required when called:    2
  3976 ;; This function calls:
  3977 ;;		_delay_us
  3978 ;;		_ClockEight
  3979 ;; This function is called by:
  3980 ;;		_Nordic_Readback
  3981 ;;		_main
  3982 ;; This function uses a non-reentrant model
  3983 ;;
  3984                           psect	text315
  3985                           	file	"C:\Projects\Nordic\dual wireless mic ref design\clean source code\RX\Nordic_i2c.c
                                 "
  3986                           	line	42
  3987                           	global	__size_of_Nordic_Send
  3988  005D                     	__size_of_Nordic_Send	equ	__end_of_Nordic_Send-_Nordic_Send
  3989                           	
  3990  0254                     _Nordic_Send:	
  3991                           	opt	stack 4
  3992                           ; Regs used in _Nordic_Send: [wreg+status,2+status,0+pclath+cstack]
  3993                           ;Nordic_Send@address stored from wreg
  3994                           	line	45
  3995  0254  00F9               	movwf	(Nordic_Send@address)
  3996                           	
  3997  0255                     l4301:	
  3998                           ;Nordic_i2c.c: 44: BYTE temp;
  3999                           ;Nordic_i2c.c: 45: TransmissionError=0;
  4000  0255  1283               	bcf	status, 5	;RP0=0, select bank0
  4001  0256  01AE               	clrf	(_TransmissionError)
  4002                           	line	48
  4003                           ;Nordic_i2c.c: 48: (RC3=1);
  4004  0257  1587               	bsf	(59/8),(59)&7
  4005                           	line	49
  4006                           ;Nordic_i2c.c: 49: (RC2=1);
  4007  0258  1507               	bsf	(58/8),(58)&7
  4008                           	line	50
  4009                           	
  4010  0259                     l4303:	
  4011                           ;Nordic_i2c.c: 50: delay_us(100);
  4012  0259  3064               	movlw	(064h)
  4013  025A  218E               	fcall	_delay_us
  4014                           	line	51
  4015                           	
  4016  025B                     l4305:	
  4017                           ;Nordic_i2c.c: 51: (RC2=0);
  4018  025B  1283               	bcf	status, 5	;RP0=0, select bank0
  4019  025C  1107               	bcf	(58/8),(58)&7
  4020                           	line	52
  4021                           ;Nordic_i2c.c: 52: delay_us(100);
  4022  025D  3064               	movlw	(064h)
  4023  025E  218E               	fcall	_delay_us
  4024                           	line	53
  4025                           	
  4026  025F                     l4307:	
  4027                           ;Nordic_i2c.c: 53: (RC3=0);
  4028  025F  1283               	bcf	status, 5	;RP0=0, select bank0
  4029  0260  1187               	bcf	(59/8),(59)&7
  4030                           	line	54
  4031                           ;Nordic_i2c.c: 54: delay_us(100);
  4032  0261  3064               	movlw	(064h)
  4033  0262  218E               	fcall	_delay_us
  4034                           	line	56
  4035                           	
  4036  0263                     l4309:	
  4037                           ;Nordic_i2c.c: 56: temp = N_ADDR;
  4038  0263  1283               	bcf	status, 5	;RP0=0, select bank0
  4039  0264  083B               	movf	(_N_ADDR),w
  4040  0265  00F8               	movwf	(??_Nordic_Send+0)+0
  4041  0266  0878               	movf	(??_Nordic_Send+0)+0,w
  4042  0267  00FA               	movwf	(Nordic_Send@temp)
  4043                           	line	57
  4044                           	
  4045  0268                     l4311:	
  4046                           ;Nordic_i2c.c: 57: ClockEight( temp);
  4047  0268  087A               	movf	(Nordic_Send@temp),w
  4048  0269  2224               	fcall	_ClockEight
  4049                           	line	62
  4050                           	
  4051  026A                     l4313:	
  4052                           ;Nordic_i2c.c: 62: TRISC|=0x04;;
  4053  026A  1683               	bsf	status, 5	;RP0=1, select bank1
  4054  026B  1507               	bsf	(135)^080h+(2/8),(2)&7	;volatile
  4055                           	line	63
  4056                           	
  4057  026C                     l4315:	
  4058                           ;Nordic_i2c.c: 63: delay_us(3);
  4059  026C  3003               	movlw	(03h)
  4060  026D  218E               	fcall	_delay_us
  4061                           	line	64
  4062                           	
  4063  026E                     l4317:	
  4064                           ;Nordic_i2c.c: 64: (RC3=1);
  4065  026E  1283               	bcf	status, 5	;RP0=0, select bank0
  4066  026F  1587               	bsf	(59/8),(59)&7
  4067                           	line	65
  4068                           	
  4069  0270                     l4319:	
  4070                           ;Nordic_i2c.c: 65: delay_us(100);
  4071  0270  3064               	movlw	(064h)
  4072  0271  218E               	fcall	_delay_us
  4073                           	line	66
  4074                           	
  4075  0272                     l4321:	
  4076                           ;Nordic_i2c.c: 66: if(RC2)
  4077  0272  1283               	bcf	status, 5	;RP0=0, select bank0
  4078  0273  1D07               	btfss	(58/8),(58)&7
  4079  0274  2A76               	goto	u3001
  4080  0275  2A77               	goto	u3000
  4081  0276                     u3001:
  4082  0276  2A78               	goto	l561
  4083  0277                     u3000:
  4084                           	line	68
  4085                           	
  4086  0277                     l4323:	
  4087                           ;Nordic_i2c.c: 67: {
  4088                           ;Nordic_i2c.c: 68: TransmissionError |= 1;
  4089  0277  142E               	bsf	(_TransmissionError)+(0/8),(0)&7
  4090                           	line	69
  4091                           	
  4092  0278                     l561:	
  4093                           	line	70
  4094                           ;Nordic_i2c.c: 69: }
  4095                           ;Nordic_i2c.c: 70: (RC3=0);
  4096  0278  1187               	bcf	(59/8),(59)&7
  4097                           	line	76
  4098                           	
  4099  0279                     l4325:	
  4100                           ;Nordic_i2c.c: 76: TRISC&=0xFB;;
  4101  0279  30FB               	movlw	(0FBh)
  4102  027A  00F8               	movwf	(??_Nordic_Send+0)+0
  4103  027B  0878               	movf	(??_Nordic_Send+0)+0,w
  4104  027C  1683               	bsf	status, 5	;RP0=1, select bank1
  4105  027D  0587               	andwf	(135)^080h,f	;volatile
  4106                           	line	78
  4107                           	
  4108  027E                     l4327:	
  4109                           ;Nordic_i2c.c: 78: ClockEight( address);
  4110  027E  0879               	movf	(Nordic_Send@address),w
  4111  027F  2224               	fcall	_ClockEight
  4112                           	line	84
  4113                           	
  4114  0280                     l4329:	
  4115                           ;Nordic_i2c.c: 84: TRISC|=0x04;;
  4116  0280  1683               	bsf	status, 5	;RP0=1, select bank1
  4117  0281  1507               	bsf	(135)^080h+(2/8),(2)&7	;volatile
  4118                           	line	85
  4119                           	
  4120  0282                     l4331:	
  4121                           ;Nordic_i2c.c: 85: (RC3=1);
  4122  0282  1283               	bcf	status, 5	;RP0=0, select bank0
  4123  0283  1587               	bsf	(59/8),(59)&7
  4124                           	line	86
  4125                           	
  4126  0284                     l4333:	
  4127                           ;Nordic_i2c.c: 86: delay_us(100);
  4128  0284  3064               	movlw	(064h)
  4129  0285  218E               	fcall	_delay_us
  4130                           	line	87
  4131                           	
  4132  0286                     l4335:	
  4133                           ;Nordic_i2c.c: 87: if(RC2)
  4134  0286  1283               	bcf	status, 5	;RP0=0, select bank0
  4135  0287  1D07               	btfss	(58/8),(58)&7
  4136  0288  2A8A               	goto	u3011
  4137  0289  2A8B               	goto	u3010
  4138  028A                     u3011:
  4139  028A  2A8C               	goto	l562
  4140  028B                     u3010:
  4141                           	line	89
  4142                           	
  4143  028B                     l4337:	
  4144                           ;Nordic_i2c.c: 88: {
  4145                           ;Nordic_i2c.c: 89: TransmissionError |= 1;
  4146  028B  142E               	bsf	(_TransmissionError)+(0/8),(0)&7
  4147                           	line	90
  4148                           	
  4149  028C                     l562:	
  4150                           	line	92
  4151                           ;Nordic_i2c.c: 90: }
  4152                           ;Nordic_i2c.c: 92: (RC3=0);
  4153  028C  1187               	bcf	(59/8),(59)&7
  4154                           	line	97
  4155                           	
  4156  028D                     l4339:	
  4157                           ;Nordic_i2c.c: 97: TRISC&=0xFB;;
  4158  028D  30FB               	movlw	(0FBh)
  4159  028E  00F8               	movwf	(??_Nordic_Send+0)+0
  4160  028F  0878               	movf	(??_Nordic_Send+0)+0,w
  4161  0290  1683               	bsf	status, 5	;RP0=1, select bank1
  4162  0291  0587               	andwf	(135)^080h,f	;volatile
  4163                           	line	99
  4164                           	
  4165  0292                     l4341:	
  4166                           ;Nordic_i2c.c: 99: ClockEight( data8);
  4167  0292  0877               	movf	(Nordic_Send@data8),w
  4168  0293  2224               	fcall	_ClockEight
  4169                           	line	105
  4170                           	
  4171  0294                     l4343:	
  4172                           ;Nordic_i2c.c: 105: TRISC|=0x04;;
  4173  0294  1683               	bsf	status, 5	;RP0=1, select bank1
  4174  0295  1507               	bsf	(135)^080h+(2/8),(2)&7	;volatile
  4175                           	line	107
  4176                           	
  4177  0296                     l4345:	
  4178                           ;Nordic_i2c.c: 107: (RC3=1);
  4179  0296  1283               	bcf	status, 5	;RP0=0, select bank0
  4180  0297  1587               	bsf	(59/8),(59)&7
  4181                           	line	108
  4182                           	
  4183  0298                     l4347:	
  4184                           ;Nordic_i2c.c: 108: delay_us(100);
  4185  0298  3064               	movlw	(064h)
  4186  0299  218E               	fcall	_delay_us
  4187                           	line	109
  4188                           	
  4189  029A                     l4349:	
  4190                           ;Nordic_i2c.c: 109: if(RC2)
  4191  029A  1283               	bcf	status, 5	;RP0=0, select bank0
  4192  029B  1D07               	btfss	(58/8),(58)&7
  4193  029C  2A9E               	goto	u3021
  4194  029D  2A9F               	goto	u3020
  4195  029E                     u3021:
  4196  029E  2AA0               	goto	l563
  4197  029F                     u3020:
  4198                           	line	111
  4199                           	
  4200  029F                     l4351:	
  4201                           ;Nordic_i2c.c: 110: {
  4202                           ;Nordic_i2c.c: 111: TransmissionError |= 1;
  4203  029F  142E               	bsf	(_TransmissionError)+(0/8),(0)&7
  4204                           	line	113
  4205                           	
  4206  02A0                     l563:	
  4207                           	line	115
  4208                           ;Nordic_i2c.c: 113: }
  4209                           ;Nordic_i2c.c: 115: (RC3=0);
  4210  02A0  1187               	bcf	(59/8),(59)&7
  4211                           	line	120
  4212                           	
  4213  02A1                     l4353:	
  4214                           ;Nordic_i2c.c: 120: TRISC&=0xFB;;
  4215  02A1  30FB               	movlw	(0FBh)
  4216  02A2  00F8               	movwf	(??_Nordic_Send+0)+0
  4217  02A3  0878               	movf	(??_Nordic_Send+0)+0,w
  4218  02A4  1683               	bsf	status, 5	;RP0=1, select bank1
  4219  02A5  0587               	andwf	(135)^080h,f	;volatile
  4220                           	line	122
  4221                           	
  4222  02A6                     l4355:	
  4223                           ;Nordic_i2c.c: 122: (RC2=0);
  4224  02A6  1283               	bcf	status, 5	;RP0=0, select bank0
  4225  02A7  1107               	bcf	(58/8),(58)&7
  4226                           	line	123
  4227                           	
  4228  02A8                     l4357:	
  4229                           ;Nordic_i2c.c: 123: delay_us(100);
  4230  02A8  3064               	movlw	(064h)
  4231  02A9  218E               	fcall	_delay_us
  4232                           	line	124
  4233                           	
  4234  02AA                     l4359:	
  4235                           ;Nordic_i2c.c: 124: (RC3=1);
  4236  02AA  1283               	bcf	status, 5	;RP0=0, select bank0
  4237  02AB  1587               	bsf	(59/8),(59)&7
  4238                           	line	125
  4239                           	
  4240  02AC                     l4361:	
  4241                           ;Nordic_i2c.c: 125: delay_us(100);
  4242  02AC  3064               	movlw	(064h)
  4243  02AD  218E               	fcall	_delay_us
  4244                           	line	126
  4245                           	
  4246  02AE                     l4363:	
  4247                           ;Nordic_i2c.c: 126: (RC2=1);
  4248  02AE  1283               	bcf	status, 5	;RP0=0, select bank0
  4249  02AF  1507               	bsf	(58/8),(58)&7
  4250                           	line	128
  4251                           	
  4252  02B0                     l564:	
  4253  02B0  0008               	return
  4254                           	opt stack 0
  4255                           GLOBAL	__end_of_Nordic_Send
  4256  02B1                     	__end_of_Nordic_Send:
  4257 ;; =============== function _Nordic_Send ends ============
  4258                           
  4259                           	signat	_Nordic_Send,8312
  4260                           	global	_ClockEight
  4261                           psect	text316,local,class=CODE,delta=2
  4262                           global __ptext316
  4263  0224                     __ptext316:
  4264                           
  4265 ;; *************** function _ClockEight *****************
  4266 ;; Defined at:
  4267 ;;		line 22 in file "C:\Projects\Nordic\dual wireless mic ref design\clean source code\RX\Nordic_i2c.c"
  4268 ;; Parameters:    Size  Location     Type
  4269 ;;  temp            1    wreg     unsigned char 
  4270 ;; Auto vars:     Size  Location     Type
  4271 ;;  temp            1    5[COMMON] unsigned char 
  4272 ;;  t               1    6[COMMON] unsigned char 
  4273 ;; Return value:  Size  Location     Type
  4274 ;;		None               void
  4275 ;; Registers used:
  4276 ;;		wreg, status,2, status,0, pclath, cstack
  4277 ;; Tracked objects:
  4278 ;;		On entry : 0/0
  4279 ;;		On exit  : 0/0
  4280 ;;		Unchanged: 0/0
  4281 ;; Data sizes:     COMMON   BANK0   BANK1
  4282 ;;      Params:         0       0       0
  4283 ;;      Locals:         2       0       0
  4284 ;;      Temps:          2       0       0
  4285 ;;      Totals:         4       0       0
  4286 ;;Total ram usage:        4 bytes
  4287 ;; Hardware stack levels used:    1
  4288 ;; Hardware stack levels required when called:    1
  4289 ;; This function calls:
  4290 ;;		_delay_us
  4291 ;; This function is called by:
  4292 ;;		_Nordic_Send
  4293 ;;		_Nordic_Read
  4294 ;; This function uses a non-reentrant model
  4295 ;;
  4296                           psect	text316
  4297                           	file	"C:\Projects\Nordic\dual wireless mic ref design\clean source code\RX\Nordic_i2c.c
                                 "
  4298                           	line	22
  4299                           	global	__size_of_ClockEight
  4300  0030                     	__size_of_ClockEight	equ	__end_of_ClockEight-_ClockEight
  4301                           	
  4302  0224                     _ClockEight:	
  4303                           	opt	stack 4
  4304                           ; Regs used in _ClockEight: [wreg+status,2+status,0+pclath+cstack]
  4305                           ;ClockEight@temp stored from wreg
  4306                           	line	24
  4307  0224  00F5               	movwf	(ClockEight@temp)
  4308                           	
  4309  0225                     l4279:	
  4310                           ;Nordic_i2c.c: 23: BYTE t;
  4311                           ;Nordic_i2c.c: 24: for(t=0;t<8;t++)
  4312  0225  01F6               	clrf	(ClockEight@t)
  4313                           	
  4314  0226                     l4281:	
  4315  0226  3008               	movlw	(08h)
  4316  0227  0276               	subwf	(ClockEight@t),w
  4317  0228  1C03               	skipc
  4318  0229  2A2B               	goto	u2971
  4319  022A  2A2C               	goto	u2970
  4320  022B                     u2971:
  4321  022B  2A2E               	goto	l555
  4322  022C                     u2970:
  4323  022C  2A53               	goto	l558
  4324                           	
  4325  022D                     l4283:	
  4326  022D  2A53               	goto	l558
  4327                           	line	25
  4328                           	
  4329  022E                     l555:	
  4330                           	line	27
  4331                           ;Nordic_i2c.c: 25: {
  4332                           ;Nordic_i2c.c: 27: (RC2=0);
  4333  022E  1283               	bcf	status, 5	;RP0=0, select bank0
  4334  022F  1107               	bcf	(58/8),(58)&7
  4335                           	line	29
  4336                           ;Nordic_i2c.c: 29: if(temp & 0x80)
  4337  0230  1FF5               	btfss	(ClockEight@temp),(7)&7
  4338  0231  2A33               	goto	u2981
  4339  0232  2A34               	goto	u2980
  4340  0233                     u2981:
  4341  0233  2A36               	goto	l4287
  4342  0234                     u2980:
  4343                           	line	30
  4344                           	
  4345  0234                     l4285:	
  4346                           ;Nordic_i2c.c: 30: (RC2=1);
  4347  0234  1507               	bsf	(58/8),(58)&7
  4348  0235  2A36               	goto	l4287
  4349                           	
  4350  0236                     l557:	
  4351                           	line	31
  4352                           	
  4353  0236                     l4287:	
  4354                           ;Nordic_i2c.c: 31: delay_us(100);
  4355  0236  3064               	movlw	(064h)
  4356  0237  218E               	fcall	_delay_us
  4357                           	line	32
  4358                           	
  4359  0238                     l4289:	
  4360                           ;Nordic_i2c.c: 32: (RC3=1);
  4361  0238  1283               	bcf	status, 5	;RP0=0, select bank0
  4362  0239  1587               	bsf	(59/8),(59)&7
  4363                           	line	33
  4364                           ;Nordic_i2c.c: 33: delay_us(100);
  4365  023A  3064               	movlw	(064h)
  4366  023B  218E               	fcall	_delay_us
  4367                           	line	34
  4368                           	
  4369  023C                     l4291:	
  4370                           ;Nordic_i2c.c: 34: (RC3=0);
  4371  023C  1283               	bcf	status, 5	;RP0=0, select bank0
  4372  023D  1187               	bcf	(59/8),(59)&7
  4373                           	line	35
  4374                           ;Nordic_i2c.c: 35: delay_us(100);
  4375  023E  3064               	movlw	(064h)
  4376  023F  218E               	fcall	_delay_us
  4377                           	line	36
  4378                           	
  4379  0240                     l4293:	
  4380                           ;Nordic_i2c.c: 36: temp = temp<<1;
  4381  0240  0875               	movf	(ClockEight@temp),w
  4382  0241  00F3               	movwf	(??_ClockEight+0)+0
  4383  0242  0773               	addwf	(??_ClockEight+0)+0,w
  4384  0243  00F4               	movwf	(??_ClockEight+1)+0
  4385  0244  0874               	movf	(??_ClockEight+1)+0,w
  4386  0245  00F5               	movwf	(ClockEight@temp)
  4387                           	line	37
  4388                           	
  4389  0246                     l4295:	
  4390                           ;Nordic_i2c.c: 37: (RC2=0);
  4391  0246  1283               	bcf	status, 5	;RP0=0, select bank0
  4392  0247  1107               	bcf	(58/8),(58)&7
  4393                           	line	24
  4394                           	
  4395  0248                     l4297:	
  4396  0248  3001               	movlw	(01h)
  4397  0249  00F3               	movwf	(??_ClockEight+0)+0
  4398  024A  0873               	movf	(??_ClockEight+0)+0,w
  4399  024B  07F6               	addwf	(ClockEight@t),f
  4400                           	
  4401  024C                     l4299:	
  4402  024C  3008               	movlw	(08h)
  4403  024D  0276               	subwf	(ClockEight@t),w
  4404  024E  1C03               	skipc
  4405  024F  2A51               	goto	u2991
  4406  0250  2A52               	goto	u2990
  4407  0251                     u2991:
  4408  0251  2A2E               	goto	l555
  4409  0252                     u2990:
  4410  0252  2A53               	goto	l558
  4411                           	
  4412  0253                     l556:	
  4413                           	line	39
  4414                           	
  4415  0253                     l558:	
  4416  0253  0008               	return
  4417                           	opt stack 0
  4418                           GLOBAL	__end_of_ClockEight
  4419  0254                     	__end_of_ClockEight:
  4420 ;; =============== function _ClockEight ends ============
  4421                           
  4422                           	signat	_ClockEight,4216
  4423                           	global	_EEpromWrite
  4424                           psect	text317,local,class=CODE,delta=2
  4425                           global __ptext317
  4426  01A9                     __ptext317:
  4427                           
  4428 ;; *************** function _EEpromWrite *****************
  4429 ;; Defined at:
  4430 ;;		line 588 in file "C:\Projects\Nordic\dual wireless mic ref design\clean source code\RX\main.c"
  4431 ;; Parameters:    Size  Location     Type
  4432 ;;  address         1    wreg     unsigned char 
  4433 ;;  value           1    1[COMMON] unsigned char 
  4434 ;; Auto vars:     Size  Location     Type
  4435 ;;  address         1    2[COMMON] unsigned char 
  4436 ;; Return value:  Size  Location     Type
  4437 ;;		None               void
  4438 ;; Registers used:
  4439 ;;		wreg
  4440 ;; Tracked objects:
  4441 ;;		On entry : 0/0
  4442 ;;		On exit  : 0/0
  4443 ;;		Unchanged: 0/0
  4444 ;; Data sizes:     COMMON   BANK0   BANK1
  4445 ;;      Params:         1       0       0
  4446 ;;      Locals:         1       0       0
  4447 ;;      Temps:          0       0       0
  4448 ;;      Totals:         2       0       0
  4449 ;;Total ram usage:        2 bytes
  4450 ;; Hardware stack levels used:    1
  4451 ;; This function calls:
  4452 ;;		Nothing
  4453 ;; This function is called by:
  4454 ;;		_main
  4455 ;; This function uses a non-reentrant model
  4456 ;;
  4457                           psect	text317
  4458                           	file	"C:\Projects\Nordic\dual wireless mic ref design\clean source code\RX\main.c"
  4459                           	line	588
  4460                           	global	__size_of_EEpromWrite
  4461  0010                     	__size_of_EEpromWrite	equ	__end_of_EEpromWrite-_EEpromWrite
  4462                           	
  4463  01A9                     _EEpromWrite:	
  4464                           	opt	stack 7
  4465                           ; Regs used in _EEpromWrite: [wreg]
  4466                           ;EEpromWrite@address stored from wreg
  4467  01A9  00F2               	movwf	(EEpromWrite@address)
  4468                           	line	589
  4469                           	
  4470  01AA                     l4267:	
  4471                           ;main.c: 589: EEADR=address;
  4472  01AA  0872               	movf	(EEpromWrite@address),w
  4473  01AB  1683               	bsf	status, 5	;RP0=1, select bank1
  4474  01AC  009B               	movwf	(155)^080h	;volatile
  4475                           	line	590
  4476                           ;main.c: 590: EEDAT=value;
  4477  01AD  0871               	movf	(EEpromWrite@value),w
  4478  01AE  009A               	movwf	(154)^080h	;volatile
  4479                           	line	597
  4480                           	
  4481  01AF                     l4269:	
  4482                           ;main.c: 597: WREN=1;
  4483  01AF  151C               	bsf	(1250/8)^080h,(1250)&7
  4484                           	line	598
  4485                           	
  4486  01B0                     l4271:	
  4487                           ;main.c: 598: GIE=0;
  4488  01B0  138B               	bcf	(95/8),(95)&7
  4489                           	line	599
  4490                           ;main.c: 599: EECON2=0x55;
  4491  01B1  3055               	movlw	(055h)
  4492  01B2  009D               	movwf	(157)^080h	;volatile
  4493                           	line	600
  4494                           ;main.c: 600: EECON2=0xAA;
  4495  01B3  30AA               	movlw	(0AAh)
  4496  01B4  009D               	movwf	(157)^080h	;volatile
  4497                           	line	601
  4498                           	
  4499  01B5                     l4273:	
  4500                           ;main.c: 601: WR=1;
  4501  01B5  149C               	bsf	(1249/8)^080h,(1249)&7
  4502                           	line	602
  4503                           	
  4504  01B6                     l4275:	
  4505                           ;main.c: 602: GIE=1;
  4506  01B6  178B               	bsf	(95/8),(95)&7
  4507                           	line	603
  4508                           	
  4509  01B7                     l4277:	
  4510                           ;main.c: 603: WREN=0;
  4511  01B7  111C               	bcf	(1250/8)^080h,(1250)&7
  4512                           	line	604
  4513                           	
  4514  01B8                     l1855:	
  4515  01B8  0008               	return
  4516                           	opt stack 0
  4517                           GLOBAL	__end_of_EEpromWrite
  4518  01B9                     	__end_of_EEpromWrite:
  4519 ;; =============== function _EEpromWrite ends ============
  4520                           
  4521                           	signat	_EEpromWrite,8312
  4522                           	global	_setup_ports
  4523                           psect	text318,local,class=CODE,delta=2
  4524                           global __ptext318
  4525  01B9                     __ptext318:
  4526                           
  4527 ;; *************** function _setup_ports *****************
  4528 ;; Defined at:
  4529 ;;		line 609 in file "C:\Projects\Nordic\dual wireless mic ref design\clean source code\RX\main.c"
  4530 ;; Parameters:    Size  Location     Type
  4531 ;;		None
  4532 ;; Auto vars:     Size  Location     Type
  4533 ;;		None
  4534 ;; Return value:  Size  Location     Type
  4535 ;;		None               void
  4536 ;; Registers used:
  4537 ;;		wreg, status,2
  4538 ;; Tracked objects:
  4539 ;;		On entry : 0/0
  4540 ;;		On exit  : 0/0
  4541 ;;		Unchanged: 0/0
  4542 ;; Data sizes:     COMMON   BANK0   BANK1
  4543 ;;      Params:         0       0       0
  4544 ;;      Locals:         0       0       0
  4545 ;;      Temps:          0       0       0
  4546 ;;      Totals:         0       0       0
  4547 ;;Total ram usage:        0 bytes
  4548 ;; Hardware stack levels used:    1
  4549 ;; This function calls:
  4550 ;;		Nothing
  4551 ;; This function is called by:
  4552 ;;		_main
  4553 ;; This function uses a non-reentrant model
  4554 ;;
  4555                           psect	text318
  4556                           	file	"C:\Projects\Nordic\dual wireless mic ref design\clean source code\RX\main.c"
  4557                           	line	609
  4558                           	global	__size_of_setup_ports
  4559  0012                     	__size_of_setup_ports	equ	__end_of_setup_ports-_setup_ports
  4560                           	
  4561  01B9                     _setup_ports:	
  4562                           	opt	stack 7
  4563                           ; Regs used in _setup_ports: [wreg+status,2]
  4564                           	line	610
  4565                           	
  4566  01B9                     l4255:	
  4567                           ;main.c: 610: OSCCON = 0x71;
  4568  01B9  3071               	movlw	(071h)
  4569  01BA  1683               	bsf	status, 5	;RP0=1, select bank1
  4570  01BB  008F               	movwf	(143)^080h	;volatile
  4571                           	line	611
  4572                           	
  4573  01BC                     l4257:	
  4574                           ;main.c: 611: ANSEL = 0;
  4575  01BC  0191               	clrf	(145)^080h	;volatile
  4576                           	line	612
  4577                           	
  4578  01BD                     l4259:	
  4579                           ;main.c: 612: CMCON0=7;
  4580  01BD  3007               	movlw	(07h)
  4581  01BE  1283               	bcf	status, 5	;RP0=0, select bank0
  4582  01BF  0099               	movwf	(25)	;volatile
  4583                           	line	613
  4584                           ;main.c: 613: CMCON1=0;
  4585  01C0  019A               	clrf	(26)	;volatile
  4586                           	line	614
  4587                           	
  4588  01C1                     l4261:	
  4589                           ;main.c: 614: ADON=0;
  4590  01C1  101F               	bcf	(248/8),(248)&7
  4591                           	line	616
  4592                           	
  4593  01C2                     l4263:	
  4594                           ;main.c: 616: TRISA=0x20;
  4595  01C2  3020               	movlw	(020h)
  4596  01C3  1683               	bsf	status, 5	;RP0=1, select bank1
  4597  01C4  0085               	movwf	(133)^080h	;volatile
  4598                           	line	617
  4599                           	
  4600  01C5                     l4265:	
  4601                           ;main.c: 617: TRISC=0x02;
  4602  01C5  3002               	movlw	(02h)
  4603  01C6  0087               	movwf	(135)^080h	;volatile
  4604                           	line	618
  4605                           ;main.c: 618: PORTA=0x00;
  4606  01C7  1283               	bcf	status, 5	;RP0=0, select bank0
  4607  01C8  0185               	clrf	(5)	;volatile
  4608                           	line	619
  4609                           ;main.c: 619: PORTC=0x00;
  4610  01C9  0187               	clrf	(7)	;volatile
  4611                           	line	621
  4612                           	
  4613  01CA                     l1858:	
  4614  01CA  0008               	return
  4615                           	opt stack 0
  4616                           GLOBAL	__end_of_setup_ports
  4617  01CB                     	__end_of_setup_ports:
  4618 ;; =============== function _setup_ports ends ============
  4619                           
  4620                           	signat	_setup_ports,88
  4621                           	global	_delay_ms
  4622                           psect	text319,local,class=CODE,delta=2
  4623                           global __ptext319
  4624  01F6                     __ptext319:
  4625                           
  4626 ;; *************** function _delay_ms *****************
  4627 ;; Defined at:
  4628 ;;		line 557 in file "C:\Projects\Nordic\dual wireless mic ref design\clean source code\RX\main.c"
  4629 ;; Parameters:    Size  Location     Type
  4630 ;;  time            1    wreg     unsigned char 
  4631 ;; Auto vars:     Size  Location     Type
  4632 ;;  time            1    1[COMMON] unsigned char 
  4633 ;;  temp2           1    3[COMMON] unsigned char 
  4634 ;;  temp            1    2[COMMON] unsigned char 
  4635 ;; Return value:  Size  Location     Type
  4636 ;;		None               void
  4637 ;; Registers used:
  4638 ;;		wreg, status,2, status,0
  4639 ;; Tracked objects:
  4640 ;;		On entry : 0/0
  4641 ;;		On exit  : 0/0
  4642 ;;		Unchanged: 0/0
  4643 ;; Data sizes:     COMMON   BANK0   BANK1
  4644 ;;      Params:         0       0       0
  4645 ;;      Locals:         3       0       0
  4646 ;;      Temps:          1       0       0
  4647 ;;      Totals:         4       0       0
  4648 ;;Total ram usage:        4 bytes
  4649 ;; Hardware stack levels used:    1
  4650 ;; This function calls:
  4651 ;;		Nothing
  4652 ;; This function is called by:
  4653 ;;		_Nordic_Wakeup
  4654 ;;		_Nordic_Wakeup2
  4655 ;;		_main
  4656 ;; This function uses a non-reentrant model
  4657 ;;
  4658                           psect	text319
  4659                           	file	"C:\Projects\Nordic\dual wireless mic ref design\clean source code\RX\main.c"
  4660                           	line	557
  4661                           	global	__size_of_delay_ms
  4662  002E                     	__size_of_delay_ms	equ	__end_of_delay_ms-_delay_ms
  4663                           	
  4664  01F6                     _delay_ms:	
  4665                           	opt	stack 6
  4666                           ; Regs used in _delay_ms: [wreg+status,2+status,0]
  4667                           ;delay_ms@time stored from wreg
  4668  01F6  00F1               	movwf	(delay_ms@time)
  4669                           	line	558
  4670                           	
  4671  01F7                     l4241:	
  4672                           ;main.c: 558: BYTE temp=20;
  4673  01F7  3014               	movlw	(014h)
  4674  01F8  00F0               	movwf	(??_delay_ms+0)+0
  4675  01F9  0870               	movf	(??_delay_ms+0)+0,w
  4676  01FA  00F2               	movwf	(delay_ms@temp)
  4677                           	line	559
  4678                           ;main.c: 559: BYTE temp2=19;
  4679  01FB  3013               	movlw	(013h)
  4680  01FC  00F0               	movwf	(??_delay_ms+0)+0
  4681  01FD  0870               	movf	(??_delay_ms+0)+0,w
  4682  01FE  00F3               	movwf	(delay_ms@temp2)
  4683                           	line	561
  4684                           ;main.c: 561: while ( time )
  4685  01FF  2A1D               	goto	l1840
  4686                           	
  4687  0200                     l1841:	
  4688                           	line	563
  4689                           ;main.c: 562: {
  4690                           ;main.c: 563: while (temp2 )
  4691  0200  2A11               	goto	l1842
  4692                           	
  4693  0201                     l1843:	
  4694                           	line	565
  4695                           ;main.c: 564: {
  4696                           ;main.c: 565: while ( temp )
  4697  0201  2A05               	goto	l4245
  4698                           	
  4699  0202                     l1845:	
  4700                           	line	567
  4701                           	
  4702  0202                     l4243:	
  4703                           ;main.c: 566: {
  4704                           ;main.c: 567: temp--;
  4705  0202  3001               	movlw	low(01h)
  4706  0203  02F2               	subwf	(delay_ms@temp),f
  4707  0204  2A05               	goto	l4245
  4708                           	line	568
  4709                           	
  4710  0205                     l1844:	
  4711                           	line	565
  4712                           	
  4713  0205                     l4245:	
  4714  0205  08F2               	movf	(delay_ms@temp),f
  4715  0206  1D03               	skipz
  4716  0207  2A09               	goto	u2941
  4717  0208  2A0A               	goto	u2940
  4718  0209                     u2941:
  4719  0209  2A02               	goto	l4243
  4720  020A                     u2940:
  4721  020A  2A0B               	goto	l4247
  4722                           	
  4723  020B                     l1846:	
  4724                           	line	569
  4725                           	
  4726  020B                     l4247:	
  4727                           ;main.c: 568: }
  4728                           ;main.c: 569: temp2--;
  4729  020B  3001               	movlw	low(01h)
  4730  020C  02F3               	subwf	(delay_ms@temp2),f
  4731                           	line	570
  4732                           	
  4733  020D                     l4249:	
  4734                           ;main.c: 570: temp=20;
  4735  020D  3014               	movlw	(014h)
  4736  020E  00F0               	movwf	(??_delay_ms+0)+0
  4737  020F  0870               	movf	(??_delay_ms+0)+0,w
  4738  0210  00F2               	movwf	(delay_ms@temp)
  4739                           	line	571
  4740                           	
  4741  0211                     l1842:	
  4742                           	line	563
  4743  0211  08F3               	movf	(delay_ms@temp2),f
  4744  0212  1D03               	skipz
  4745  0213  2A15               	goto	u2951
  4746  0214  2A16               	goto	u2950
  4747  0215                     u2951:
  4748  0215  2A05               	goto	l4245
  4749  0216                     u2950:
  4750  0216  2A17               	goto	l4251
  4751                           	
  4752  0217                     l1847:	
  4753                           	line	572
  4754                           	
  4755  0217                     l4251:	
  4756                           ;main.c: 571: }
  4757                           ;main.c: 572: temp2=19;
  4758  0217  3013               	movlw	(013h)
  4759  0218  00F0               	movwf	(??_delay_ms+0)+0
  4760  0219  0870               	movf	(??_delay_ms+0)+0,w
  4761  021A  00F3               	movwf	(delay_ms@temp2)
  4762                           	line	573
  4763                           	
  4764  021B                     l4253:	
  4765                           ;main.c: 573: time--;
  4766  021B  3001               	movlw	low(01h)
  4767  021C  02F1               	subwf	(delay_ms@time),f
  4768                           	line	574
  4769                           	
  4770  021D                     l1840:	
  4771                           	line	561
  4772  021D  08F1               	movf	(delay_ms@time),f
  4773  021E  1D03               	skipz
  4774  021F  2A21               	goto	u2961
  4775  0220  2A22               	goto	u2960
  4776  0221                     u2961:
  4777  0221  2A11               	goto	l1842
  4778  0222                     u2960:
  4779  0222  2A23               	goto	l1849
  4780                           	
  4781  0223                     l1848:	
  4782                           	line	575
  4783                           	
  4784  0223                     l1849:	
  4785  0223  0008               	return
  4786                           	opt stack 0
  4787                           GLOBAL	__end_of_delay_ms
  4788  0224                     	__end_of_delay_ms:
  4789 ;; =============== function _delay_ms ends ============
  4790                           
  4791                           	signat	_delay_ms,4216
  4792                           	global	_EEpromRead
  4793                           psect	text320,local,class=CODE,delta=2
  4794                           global __ptext320
  4795  0175                     __ptext320:
  4796                           
  4797 ;; *************** function _EEpromRead *****************
  4798 ;; Defined at:
  4799 ;;		line 578 in file "C:\Projects\Nordic\dual wireless mic ref design\clean source code\RX\main.c"
  4800 ;; Parameters:    Size  Location     Type
  4801 ;;  address         1    wreg     unsigned char 
  4802 ;; Auto vars:     Size  Location     Type
  4803 ;;  address         1    0[COMMON] unsigned char 
  4804 ;; Return value:  Size  Location     Type
  4805 ;;                  1    wreg      unsigned char 
  4806 ;; Registers used:
  4807 ;;		wreg
  4808 ;; Tracked objects:
  4809 ;;		On entry : 0/0
  4810 ;;		On exit  : 0/0
  4811 ;;		Unchanged: 0/0
  4812 ;; Data sizes:     COMMON   BANK0   BANK1
  4813 ;;      Params:         0       0       0
  4814 ;;      Locals:         1       0       0
  4815 ;;      Temps:          0       0       0
  4816 ;;      Totals:         1       0       0
  4817 ;;Total ram usage:        1 bytes
  4818 ;; Hardware stack levels used:    1
  4819 ;; This function calls:
  4820 ;;		Nothing
  4821 ;; This function is called by:
  4822 ;;		_Nordic_Wakeup
  4823 ;;		_Nordic_Wakeup2
  4824 ;;		_main
  4825 ;; This function uses a non-reentrant model
  4826 ;;
  4827                           psect	text320
  4828                           	file	"C:\Projects\Nordic\dual wireless mic ref design\clean source code\RX\main.c"
  4829                           	line	578
  4830                           	global	__size_of_EEpromRead
  4831  0008                     	__size_of_EEpromRead	equ	__end_of_EEpromRead-_EEpromRead
  4832                           	
  4833  0175                     _EEpromRead:	
  4834                           	opt	stack 7
  4835                           ; Regs used in _EEpromRead: [wreg]
  4836                           ;EEpromRead@address stored from wreg
  4837                           	line	581
  4838  0175  00F0               	movwf	(EEpromRead@address)
  4839                           	
  4840  0176                     l4235:	
  4841                           ;main.c: 581: EEADR=address;
  4842  0176  0870               	movf	(EEpromRead@address),w
  4843  0177  1683               	bsf	status, 5	;RP0=1, select bank1
  4844  0178  009B               	movwf	(155)^080h	;volatile
  4845                           	line	582
  4846                           	
  4847  0179                     l4237:	
  4848                           ;main.c: 582: RD=1;
  4849  0179  141C               	bsf	(1248/8)^080h,(1248)&7
  4850                           	line	583
  4851                           ;main.c: 583: return (EEDAT);
  4852  017A  081A               	movf	(154)^080h,w	;volatile
  4853  017B  297C               	goto	l1852
  4854                           	
  4855  017C                     l4239:	
  4856                           	line	585
  4857                           	
  4858  017C                     l1852:	
  4859  017C  0008               	return
  4860                           	opt stack 0
  4861                           GLOBAL	__end_of_EEpromRead
  4862  017D                     	__end_of_EEpromRead:
  4863 ;; =============== function _EEpromRead ends ============
  4864                           
  4865                           	signat	_EEpromRead,4217
  4866                           	global	_delay_us
  4867                           psect	text321,local,class=CODE,delta=2
  4868                           global __ptext321
  4869  018E                     __ptext321:
  4870                           
  4871 ;; *************** function _delay_us *****************
  4872 ;; Defined at:
  4873 ;;		line 550 in file "C:\Projects\Nordic\dual wireless mic ref design\clean source code\RX\main.c"
  4874 ;; Parameters:    Size  Location     Type
  4875 ;;  time            1    wreg     unsigned char 
  4876 ;; Auto vars:     Size  Location     Type
  4877 ;;  time            1    0[COMMON] unsigned char 
  4878 ;; Return value:  Size  Location     Type
  4879 ;;		None               void
  4880 ;; Registers used:
  4881 ;;		wreg, status,2, status,0
  4882 ;; Tracked objects:
  4883 ;;		On entry : 0/0
  4884 ;;		On exit  : 0/0
  4885 ;;		Unchanged: 0/0
  4886 ;; Data sizes:     COMMON   BANK0   BANK1
  4887 ;;      Params:         0       0       0
  4888 ;;      Locals:         1       0       0
  4889 ;;      Temps:          0       0       0
  4890 ;;      Totals:         1       0       0
  4891 ;;Total ram usage:        1 bytes
  4892 ;; Hardware stack levels used:    1
  4893 ;; This function calls:
  4894 ;;		Nothing
  4895 ;; This function is called by:
  4896 ;;		_ClockEight
  4897 ;;		_Nordic_Send
  4898 ;;		_Nordic_Read
  4899 ;;		_Nordic_Wakeup
  4900 ;;		_Nordic_Wakeup2
  4901 ;;		_main
  4902 ;; This function uses a non-reentrant model
  4903 ;;
  4904                           psect	text321
  4905                           	file	"C:\Projects\Nordic\dual wireless mic ref design\clean source code\RX\main.c"
  4906                           	line	550
  4907                           	global	__size_of_delay_us
  4908  000C                     	__size_of_delay_us	equ	__end_of_delay_us-_delay_us
  4909                           	
  4910  018E                     _delay_us:	
  4911                           	opt	stack 4
  4912                           ; Regs used in _delay_us: [wreg+status,2+status,0]
  4913                           ;delay_us@time stored from wreg
  4914  018E  00F0               	movwf	(delay_us@time)
  4915                           	line	551
  4916                           	
  4917  018F                     l4229:	
  4918                           ;main.c: 551: while ( time )
  4919  018F  2993               	goto	l4233
  4920                           	
  4921  0190                     l1835:	
  4922                           	line	553
  4923                           	
  4924  0190                     l4231:	
  4925                           ;main.c: 552: {
  4926                           ;main.c: 553: time--;
  4927  0190  3001               	movlw	low(01h)
  4928  0191  02F0               	subwf	(delay_us@time),f
  4929  0192  2993               	goto	l4233
  4930                           	line	554
  4931                           	
  4932  0193                     l1834:	
  4933                           	line	551
  4934                           	
  4935  0193                     l4233:	
  4936  0193  08F0               	movf	(delay_us@time),f
  4937  0194  1D03               	skipz
  4938  0195  2997               	goto	u2931
  4939  0196  2998               	goto	u2930
  4940  0197                     u2931:
  4941  0197  2990               	goto	l4231
  4942  0198                     u2930:
  4943  0198  2999               	goto	l1837
  4944                           	
  4945  0199                     l1836:	
  4946                           	line	555
  4947                           	
  4948  0199                     l1837:	
  4949  0199  0008               	return
  4950                           	opt stack 0
  4951                           GLOBAL	__end_of_delay_us
  4952  019A                     	__end_of_delay_us:
  4953 ;; =============== function _delay_us ends ============
  4954                           
  4955                           	signat	_delay_us,4216
  4956                           psect	text322,local,class=CODE,delta=2
  4957                           global __ptext322
  4958  0000                     __ptext322:
  4959                           	global	btemp
  4960  007E                     	btemp set 07Eh
  4961                           
  4962                           	DABS	1,126,2	;btemp
  4963                           	global	wtemp0
  4964  007E                     	wtemp0 set btemp


HI-TECH Software PICC Macro Assembler V9.82 build 9453 
Symbol Table                                                                                   Mon Oct 10 13:09:30 2011

                       _i 0028                         pc 0002                        _RD 04E0  
                      _WR 04E1                        fsr 0004                       l561 0278  
                     l562 028C                       l570 031A                       l555 022E  
                     l563 02A0                       l571 0319                       l556 0253  
                     l564 02B0                       l572 0320                       l580 01E1  
                     l557 0236                       l573 032A                       l581 01E0  
                     l558 0253                       l574 034C                       l582 01E9  
                     l575 0341                       l567 02D3                       l583 01F5  
                     l576 0356                       l568 02E9                       l577 0365  
                     l569 0313                       _GIE 005F                       _RA2 002A  
                     _RC0 0038                       _RA4 002C                       _RA5 002D  
                     _RC2 003A                       _RC3 003B                       _RC4 003C  
                     _RC5 003D                       indf 0000            _NordicReg2BLUE 0080  
     _red_address_changed 002A            _NordicReg1REDA 0040                      l1200 0566  
                    l1201 0566                      l1150 03D6                      l1151 03D6  
                    l1160 0429                      l1152 03FE                      l1161 042B  
                    l1153 03FD                      l1170 0458                      l1162 042A  
                    l1154 040B                      l1171 0457                      l1163 0438  
                    l1155 040D                      l1172 0465                      l1164 043A  
                    l1156 040C                      l1148 0389                      l1180 04FF  
                    l1173 0465                      l1165 0439                      l1157 041A  
                    l1149 03FC                      l1181 04FE                      l1166 0447  
                    l1158 041C                      l1190 052B                      l1182 050C  
                    l1167 0449                      l1159 041B                      l1191 0539  
                    l1183 050E                      l1168 0448                      l1192 053B  
                    l1184 050D                      l1176 0489                      l1169 0456  
                    l1193 053A                      l1185 051B                      l1177 04FD  
                    l1194 0548                      l1186 051D                      l1178 04D7  
                    l1195 054A                      l1187 051C                      l1179 04D7  
                    l1196 0549                      l1188 052A                      l1197 0557  
                    l1189 052C                      l1198 0559                      l1199 0558  
                    l1800 05D3                      l1801 05E3                      l1802 06E5  
                    l1810 06A0                      l1811 06AD                      l1803 063C  
                    l1820 0722                      l1812 06BA                      l1804 064E  
                    l4301 0255                      l1821 072F                      l1813 06C6  
                    l1805 065B                      l1830 07FF                      l1822 07AE  
                    l1814 06DB                      l1806 0668                      l4231 0190  
                    l4311 0268                      l4303 0259                      l1831 07FF  
                    l1823 0752                      l1807 0675                      l1840 021D  
                    l1824 0765                      l1816 06FA                      l1808 0681  
                    l4233 0193                      l1841 0200                      l4241 01F7  
                    l4321 0272                      l4313 026A                      l4305 025B  
                    l4401 02E8                      l1825 0789                      l1817 06FB  
                    l1809 0693                      l1834 0193                      l1842 0211  
                    l1818 07EE                      l1826 079B                      l1835 0190  
                    l4235 0176                      l4251 0217                      l4243 0202  
                    l1843 0201                      l4331 0282                      l4323 0277  
                    l4315 026C                      l4307 025F                      l4411 02F5  
                    l4403 02EA                      l1827 07CD                      l1819 070F  
                    l1836 0199                      l1852 017C                      l1844 0205  
                    l1828 07ED                      l1837 0199                      l4229 018F  
                    l4237 0179                      l4253 021B                      l1845 0202  
                    l4245 0205                      l4261 01C1                      l4341 0292  
                    l4333 0284                      l4325 0279                      l4317 026E  
                    l4309 0263                      l4421 0305                      l4413 02F7  
                    l4405 02EF                      l4501 0390                      l1829 07FE  
                    l1846 020B                      l4239 017C                      l1847 0217  
                    l4247 020B                      l4263 01C2                      l4255 01B9  
                    l1855 01B8                      l4271 01B0                      l4351 029F  
                    l4343 0294                      l4335 0286                      l4327 027E  
                    l4319 0270                      l4431 0312                      l4423 0307  
                    l4415 02F9                      l4407 02F1                      l4511 03CE  
                    l4503 0392                      l1848 0223                      l1792 0590  
                    l1849 0223                      l4249 020D                      l4265 01C5  
                    l4257 01BC                      l4273 01B5                      l4281 0226  
                    l4361 02AC                      l4353 02A1                      l4345 0296  
                    l4337 028B                      l4329 0280                      l4441 032A  
                    l4433 0314                      l4425 0309                      l4417 02FB  
                    l4409 02F3                      l4513 03CF                      l4505 0399  
                    l4521 03FE                      l1793 05A5                      l4601 0590  
                    l1858 01CA                      l1794 05A7                      l4259 01BD  
                    l4275 01B6                      l4267 01AA                      l4291 023C  
                    l4283 022D                      l4363 02AE                      l4355 02A6  
                    l4347 0298                      l4339 028D                      l4451 033B  
                    l4443 0330                      l4435 031A                      l4427 030B  
                    l4419 02FD                      l4371 02BC                      l4531 0449  
                    l4523 040D                      l4515 03D1                      l4507 039D  
                    l1795 05BC                      l4611 05A7                      l4603 0595  
                    l1796 05BE                      l4277 01B7                      l4269 01AF  
                    l4293 0240                      l4285 0234                      l4357 02A8  
                    l4349 029A                      l4461 0355                      l4453 0341  
                    l4445 0332                      l4437 0322                      l4429 030D  
                    l4381 02CB                      l4373 02C0                      l4365 02B2  
                    l4533 0458                      l4525 041C                      l4517 03D3  
                    l4509 03AB                      l4541 0488                      l1797 07FD  
                    l4701 06B4                      l4621 05BE                      l4613 05AC  
                    l4605 059D                      l1798 07FC                      l4295 0246  
                    l4287 0236                      l4279 0225                      l4359 02AA  
                    l4471 0361                      l4463 0357                      l4455 0346  
                    l4447 0334                      l4439 0329                      l4391 02DB  
                    l4383 02CD                      l4375 02C5                      l4367 02B6  
                    l4527 042B                      l4519 03E5                      l4551 049A  
                    l4543 0489                      l4535 0466                      l4711 06DB  
                    l4703 06BA                      l1799 05DD                      l4631 05D5  
                    l4623 05C0                      l4615 05B4                      l4607 059E  
                    l4297 0248                      l4289 0238                      l4473 0363  
                    l4465 035C                      l4457 034E                      l4449 0336  
                    l4393 02DD                      l4385 02D2                      l4377 02C7  
                    l4369 02B8                      l4481 01E1                      l4529 043A  
                    l4561 04D2                      l4553 049E                      l4545 048B  
                    l4537 0468                      l4801 07EB                      l4721 06E2  
                    l4713 06DC                      l4705 06C1                      l4641 05E7  
                    l4633 05D7                      l4625 05C5                      l4617 05B5  
                    l4609 05A0                      l4299 024C                      l4475 0365  
                    l4467 035E                      l4459 0350                      l4395 02DF  
                    l4387 02D4                      l4379 02C9                      l4483 01E9  
                    l4491 0368                      l4571 051D                      l4563 04D4  
                    l4555 04AC                      l4547 0490                      l4539 0471  
                    l4811 07F7                      l4731 0702                      l4803 07EE  
                    l4715 06DD                      l4707 06D4                      l4723 06E5  
                    l4651 0606                      l4643 05EA                      l4635 05D9  
                    l4627 05CB                      l4619 05B7                      l4469 035F  
                    l4397 02E1                      l4389 02D9                      l4485 01EE  
                    l4477 01CD                      l4493 0371                      l4573 052C  
                    l4565 04E6                      l4557 04CF                      l4549 0492  
                    l4813 07F8                      l4805 07F1                      l4741 0718  
                    l4733 0704                      l4725 06EC                      l4717 06DF  
                    l4709 06D8                      l4661 062D                      l4653 0612  
                    l4645 05F1                      l4637 05DD                      l4629 05D0  
                    l4581 0567                      l4399 02E3                      l4487 01F5  
                    l4479 01D9                      l4495 0388                      l4575 053B  
                    l4559 04D0                      l4567 04FF                      l4815 07F9  
                    l4807 07F3                      l4751 0733                      l4735 070E  
                    l4743 0722                      l4727 06F2                      l4719 06E1  
                    l4671 064E                      l4663 0634                      l4655 0618  
                    l4647 05F8                      l4639 05E3                      l4591 0583  
                    l4583 0568                      l4497 0389                      l4489 0366  
                    l4577 054A                      l4569 050E                      l4809 07F5  
                    l4761 076A                      l4753 0735                      l4745 0724  
                    l4737 070F                      l4729 06FB                      l4681 066F  
                    l4673 0655                      l4665 063C                      l4657 061F  
                    l4649 05FF                      l4593 0584                      l4585 056A  
                    l4499 038B                      l4579 0559                      l4763 0774  
                    l4755 073D                      l4747 072E                      l4771 07AE  
                    l4739 0711                      l4691 0693                      l4683 0675  
                    l4675 065B                      l4667 0641                      l4659 0626  
                    l4595 0589                      l4587 056B                      l4781 07C2  
                    l4773 07B4                      l4765 0789                      l4757 0752  
                    l4749 072F                      l4693 069A                      l4685 067C  
                    l4677 0662                      l4669 0648                      l4597 058A  
                    l4589 057E                      l4791 07D8                      l4783 07C4  
                    l4775 07B8                      l4767 079D                      l4759 0765  
                    l4695 06A0                      l4687 0686                      l4679 0668  
                    l4599 058C                      l4793 07DE                      l4785 07CB  
                    l4777 07BE                      l4769 07A4                      l4697 06A7  
                    l4689 068D                      l4795 07E0                      l4779 07C0  
                    l4787 07CD                      l4699 06AD                      l4797 07E2  
                    l4789 07D4                      l4799 07E4                      _ADON 00F8  
                    u3000 0277                      u3001 0276                      u3010 028B  
                    u3011 028A                      u3020 029F                      u3100 0355  
                    u3021 029E                      u3101 0354                      u3030 02D2  
                    u3110 01E8                      u3031 02D1                      u3111 01E7  
                    u3040 02E8                      u3200 0437                      u3120 0387  
                    u3041 02E7                      u3201 0436                      u3121 0386  
                    u3050 0312                      u3210 0446                      u3130 039D  
                    u3051 0311                      u3211 0445                      u3123 0383  
                    u3060 0320                      u3220 0455                      u3140 03AB  
                    u3300 051A                      u3061 031F                      u3221 0454  
                    u3141 03AA                      u3301 0519                      u3070 0328  
                    u3230 0464                      u3150 03BB                      u3310 0529  
                    u3071 0327                      u3231 0463                      u3151 03BC  
                    u3311 0528                      u3080 033B                      u3160 03FB  
                    u3152 03C1                      u3320 0538                      u3240 0487  
                    u3400 05E2                      u3081 033A                      u3161 03FA  
                    u3153 03C2                      u3321 0537                      u3241 0486  
                    u3401 05E1                      u3090 034C                      u3170 040A  
                    u3330 0547                      u3250 049E                      u3410 0648  
                    u3091 034B                      u3171 0409                      u3163 03F7  
                    u3331 0546                      u3243 0483                      u3411 0647  
                    u3180 0419                      u3340 0556                      u3260 04AC  
                    u3500 06C1                      u3420 0655                      u3181 0418  
                    u3341 0555                      u3261 04AB                      u3501 06C0  
                    u3421 0654                      u3190 0428                      u3350 0565  
                    u3270 04BC                      u3510 06D4                      u3430 0662  
                    u3191 0427                      u3351 0564                      u3271 04BD  
                    u3511 06D3                      u3431 0661                      u3280 04FC  
                    u3272 04C2                      u3600 0774                      u3520 06EC  
                    u3440 066F                      u3360 059D                      u3281 04FB  
                    u3273 04C3                      u3601 0773                      u3521 06EB  
                    u3441 066E                      u3361 059C                      u3290 050B  
                    u3610 07AD                      u3530 06F2                      u3450 067C  
                    u3370 05B4                      u3291 050A                      u3283 04F8  
                    u3611 07AC                      u3531 06F1                      u3451 067B  
                    u3371 05B3                      u3620 07B4                      u3540 06F9  
                    u3460 068D                      u3380 05C5                      u3621 07B3  
                    u3541 06F8                      u3461 068C                      u3381 05C4  
                    u3630 07D4                      u3550 0702                      u3470 069A  
                    u3390 05D0                      u3631 07D3                      u3551 0701  
                    u3471 0699                      u3391 05CF                      u3560 070D  
                    u3480 06A7                      u3561 070C                      u3481 06A6  
                    u2930 0198                      u3570 0721                      u3490 06B4  
                    u2931 0197                      u3571 0720                      u3491 06B3  
                    u2940 020A                      u3580 072D                      u2941 0209  
                    u3581 072C                      u2950 0216                      u3590 073D  
                    u2951 0215                      u3591 073C                      u2960 0222  
                    u2961 0221                      u2970 022C                      u2971 022B  
                    u2980 0234                      u2981 0233                      u2990 0252  
                    u2991 0251                      _WREN 04E2                      _data 0026  
                    _main 0567                      btemp 007E                      start 0000  
   __end_of_Nordic_Wakeup 0466            _Nordic_Wakeup2 0466           _NordicReg2BLUEA 00C0  
              _ClockEight 0224               ?_EEpromRead 0070                     ?_main 0070  
                   _EEADR 009B                     _EEDAT 009A                     _CARRY 0018  
                   _ANSEL 0091                     _PORTA 0005                     _PORTC 0007  
                   _TRISA 0085                     _TRISC 0087                     _data8 0030  
                   pclath 000A       Nordic_Read@raddress 0079                     status 0003  
                   wtemp0 007E           _Nordic_Readback 01CB    __end_of_Nordic_Wakeup2 0567  
            __end_of_main 0800                    ??_main 0039                    _EEDATA 009A  
                  _EECON1 009C                    _EECON2 009D                    _CMCON0 0019  
                  _CMCON1 001A              ?_EEpromWrite 0071             ??_Nordic_Read 0077  
           ??_Nordic_Send 0078                    _OSCCON 008F                    _N_ADDR 003B  
     __size_of_EEpromRead 0008          __end_of_delay_ms 0224          __end_of_delay_us 019A  
         ?_Nordic_Wakeup2 0070               ?_ClockEight 0070       Nordic_Readback@temp 0033  
                  clrloop 017E   __end_of_Nordic_Readback 01F6              ?_setup_ports 0070  
     __end_of_Nordic_Read 0366       __end_of_Nordic_Send 02B1            __pcstackCOMMON 0070  
            __pidataBANK0 0174         EEpromRead@address 0070       __size_of_ClockEight 0030  
              __pbssBANK0 0020           Nordic_Read@temp 007B                __pmaintext 0567  
         Nordic_Send@temp 007A              ??_EEpromRead 0070                 ?_delay_ms 0070  
               ?_delay_us 0070          ?_Nordic_Readback 007C               _Nordic_Read 02B1  
             _Nordic_Send 0254      __size_of_EEpromWrite 0010        __end_of_EEpromRead 017D  
                 _address 002F                ??_delay_ms 0070                ??_delay_us 0070  
        EEpromWrite@value 0071      Nordic_Readback@data8 007C                   _pointer 0020  
  __size_of_Nordic_Wakeup 0100                   _timeout 002C      Nordic_Readback@rdata 0032  
    end_of_initialization 018C          ??_Nordic_Wakeup2 0035                   init_ram 019E  
    __size_of_setup_ports 0012              ??_ClockEight 0073      _blue_address_changed 0024  
 Nordic_Readback@raddress 0031        __end_of_ClockEight 0254             _NordicReg1RED 0000  
           _Nordic_Wakeup 0366             __pidataEEDATA 0000             delay_ms@temp2 0073  
     start_initialization 0185            ?_Nordic_Wakeup 0070               __pdataBANK0 003B  
           __pcstackBANK0 0031         __size_of_delay_ms 002E         __size_of_delay_us 000C  
            ?_Nordic_Read 0070              ?_Nordic_Send 0077              Nordic_Read@t 007A  
        Nordic_Send@data8 0077                 __ptext311 0466                 __ptext320 0175  
               __ptext312 0366                 __ptext321 018E                 __ptext313 01CB  
               __ptext322 0000                 __ptext314 02B1                 __ptext315 0254  
               __ptext316 0224                 __ptext317 01A9                 __ptext318 01B9  
               __ptext319 01F6        Nordic_Send@address 0079             ??_EEpromWrite 0072  
      EEpromWrite@address 0072           ??_Nordic_Wakeup 0035  __size_of_Nordic_Readback 002B  
  Nordic_Readback@address 0034              delay_ms@temp 0072              delay_ms@time 0071  
           ??_setup_ports 0070              delay_us@time 0070       __end_of_EEpromWrite 01B9  
               init_fetch 019A                  _delay_ms 01F6                  _delay_us 018E  
           __size_of_main 0299      __size_of_Nordic_Read 00B5      __size_of_Nordic_Send 005D  
                clear_ram 017D               ClockEight@t 0076       __end_of_setup_ports 01CB  
 __size_of_Nordic_Wakeup2 0101         ??_Nordic_Readback 007D               _EEpromWrite 01A9  
          ClockEight@temp 0075         _TransmissionError 002E                _EEpromRead 0175  
             _setup_ports 01B9  
